Certificate:
    Data:
        Version: 3 (0x2)
        Serial Number:
            d9:29:cb:9b:45:a3:bb:8f
    Signature Algorithm: sha256WithRSAEncryption
        Issuer: C=US, ST=California, L=California, O=Alice CA Ltd., OU=Alice CA Ltd., CN=Alice CA Ltd./emailAddress=ca@ca_alice.com
        Validity
            Not Before: Apr 11 00:04:06 2017 GMT
            Not After : Apr 11 00:04:06 2018 GMT
        Subject: C=US, ST=California, L=California, O=Alice Ltd., OU=Alice Ltd., CN=*.alice.com/emailAddress=info@alice.com
        Subject Public Key Info:
            Public Key Algorithm: rsaEncryption
                Public-Key: (2048 bit)
                Modulus:
                    00:ea:11:8e:13:40:0a:7d:ae:8e:9c:ee:d6:88:83:
                    af:b1:13:e6:26:88:6f:b3:bf:6c:04:f7:c6:da:06:
                    5c:88:62:09:7e:5c:b2:1c:ff:64:23:9d:e9:fe:2a:
                    12:44:84:65:13:41:45:9d:8b:cd:ac:d3:ae:ad:41:
                    47:48:c5:3c:fd:05:38:e8:e1:b9:31:80:93:90:48:
                    44:c1:b9:2e:11:de:ef:23:d9:65:89:45:21:77:9b:
                    5a:7f:db:a5:09:16:9e:18:f5:0c:5f:b8:6f:86:8f:
                    2c:33:a9:bd:69:ac:a3:95:39:d3:68:ca:36:93:5f:
                    9c:a3:27:97:69:86:a3:02:5c:b3:81:8d:38:07:74:
                    bc:b1:f1:0f:d2:50:34:47:02:c1:d6:e7:a6:c7:13:
                    09:04:60:26:42:f1:cd:9e:15:a5:45:af:a6:19:ab:
                    79:48:8c:a3:05:34:aa:03:33:ef:bd:1e:38:87:8d:
                    4a:44:a5:6b:54:d5:bf:9e:d6:57:f0:c6:16:ba:ab:
                    87:c2:90:d5:0a:27:28:45:81:06:fb:ac:20:d8:d6:
                    04:ee:b3:8d:92:54:b8:c8:ff:12:46:f0:60:55:05:
                    f9:85:74:32:ec:c3:75:1f:17:4a:c7:bc:5c:ff:1f:
                    91:56:42:f1:04:35:6f:66:1e:65:1e:ef:c0:a9:95:
                    e4:ef
                Exponent: 65537 (0x10001)
        X509v3 extensions:
            X509v3 Basic Constraints: 
                CA:FALSE
            Netscape Comment: 
                OpenSSL Generated Certificate
            X509v3 Subject Key Identifier: 
                99:E8:D7:AA:A9:1B:75:E6:DA:E2:22:4F:0E:0C:A8:AA:E1:D7:2A:FD
            X509v3 Authority Key Identifier: 
                keyid:97:84:38:61:DE:68:95:28:5B:E6:83:56:76:5D:3F:1F:CB:C8:61:70

            Authority Information Access: 
                OCSP - URI:http://147.46.215.152:5678

    Signature Algorithm: sha256WithRSAEncryption
         6e:28:eb:59:a2:cf:67:4a:f6:b6:f0:15:02:5e:c1:44:1c:fc:
         c4:81:03:49:22:8e:c3:37:dc:cf:f2:32:fd:df:c5:75:9d:cb:
         5b:b9:ef:1f:dd:c3:ad:4c:b3:bf:7d:1f:b4:2d:c1:74:bd:89:
         8e:c8:58:8c:02:0d:dc:19:0c:f3:5a:05:62:47:7b:09:3a:43:
         bd:db:dd:ea:49:53:48:2e:d0:c9:cf:3d:52:06:37:82:95:a2:
         be:61:a3:88:f5:a6:f5:cf:90:cd:a9:5e:7a:f3:5e:8c:f9:46:
         8b:c2:0a:b1:5c:7c:b6:e1:8d:b1:74:bb:92:6d:cd:b4:b7:64:
         fc:2d:a6:1b:7d:5d:65:cd:45:9b:c1:c2:e5:01:57:a4:ec:7c:
         46:f0:c8:c5:b5:4b:8e:a5:da:13:df:ef:c6:46:79:de:f5:ca:
         e1:32:dd:8a:05:2c:5c:1b:ee:5c:c9:bf:3a:c9:8b:3a:3b:2a:
         4f:ac:41:9e:53:28:9b:89:ac:6d:79:7a:0a:ce:f6:e8:2b:98:
         1d:96:a4:b2:f1:91:e4:ea:7e:af:3d:7e:ee:0d:0c:de:b3:ff:
         ea:65:44:3e:a3:a1:fb:d5:82:42:3f:8e:41:94:e7:21:62:29:
         74:37:9d:87:60:4e:ac:e1:d4:7d:59:50:45:90:99:09:50:d6:
         f7:6e:c0:6a
-----BEGIN CERTIFICATE-----
MIIEbzCCA1egAwIBAgIJANkpy5tFo7uPMA0GCSqGSIb3DQEBCwUAMIGfMQswCQYD
VQQGEwJVUzETMBEGA1UECAwKQ2FsaWZvcm5pYTETMBEGA1UEBwwKQ2FsaWZvcm5p
YTEWMBQGA1UECgwNQWxpY2UgQ0EgTHRkLjEWMBQGA1UECwwNQWxpY2UgQ0EgTHRk
LjEWMBQGA1UEAwwNQWxpY2UgQ0EgTHRkLjEeMBwGCSqGSIb3DQEJARYPY2FAY2Ff
YWxpY2UuY29tMB4XDTE3MDQxMTAwMDQwNloXDTE4MDQxMTAwMDQwNlowgZYxCzAJ
BgNVBAYTAlVTMRMwEQYDVQQIDApDYWxpZm9ybmlhMRMwEQYDVQQHDApDYWxpZm9y
bmlhMRMwEQYDVQQKDApBbGljZSBMdGQuMRMwEQYDVQQLDApBbGljZSBMdGQuMRQw
EgYDVQQDDAsqLmFsaWNlLmNvbTEdMBsGCSqGSIb3DQEJARYOaW5mb0BhbGljZS5j
b20wggEiMA0GCSqGSIb3DQEBAQUAA4IBDwAwggEKAoIBAQDqEY4TQAp9ro6c7taI
g6+xE+YmiG+zv2wE98baBlyIYgl+XLIc/2Qjnen+KhJEhGUTQUWdi82s066tQUdI
xTz9BTjo4bkxgJOQSETBuS4R3u8j2WWJRSF3m1p/26UJFp4Y9QxfuG+Gjywzqb1p
rKOVOdNoyjaTX5yjJ5dphqMCXLOBjTgHdLyx8Q/SUDRHAsHW56bHEwkEYCZC8c2e
FaVFr6YZq3lIjKMFNKoDM++9HjiHjUpEpWtU1b+e1lfwxha6q4fCkNUKJyhFgQb7
rCDY1gTus42SVLjI/xJG8GBVBfmFdDLsw3UfF0rHvFz/H5FWQvEENW9mHmUe78Cp
leTvAgMBAAGjgbQwgbEwCQYDVR0TBAIwADAsBglghkgBhvhCAQ0EHxYdT3BlblNT
TCBHZW5lcmF0ZWQgQ2VydGlmaWNhdGUwHQYDVR0OBBYEFJno16qpG3Xm2uIiTw4M
qKrh1yr9MB8GA1UdIwQYMBaAFJeEOGHeaJUoW+aDVnZdPx/LyGFwMDYGCCsGAQUF
BwEBBCowKDAmBggrBgEFBQcwAYYaaHR0cDovLzE0Ny40Ni4yMTUuMTUyOjU2Nzgw
DQYJKoZIhvcNAQELBQADggEBAG4o61miz2dK9rbwFQJewUQc/MSBA0kijsM33M/y
Mv3fxXWdy1u57x/dw61Ms799H7QtwXS9iY7IWIwCDdwZDPNaBWJHewk6Q73b3epJ
U0gu0MnPPVIGN4KVor5ho4j1pvXPkM2pXnrzXoz5RovCCrFcfLbhjbF0u5JtzbS3
ZPwtpht9XWXNRZvBwuUBV6TsfEbwyMW1S46l2hPf78ZGed71yuEy3YoFLFwb7lzJ
vzrJizo7Kk+sQZ5TKJuJrG15egrO9ugrmB2WpLLxkeTqfq89fu4NDN6z/+plRD6j
ofvVgkI/jkGU5yFiKXQ3nYdgTqzh1H1ZUEWQmQlQ1vduwGo=
-----END CERTIFICATE-----
