Certificate:
    Data:
        Version: 3 (0x2)
        Serial Number:
            d9:29:cb:9b:45:a3:bb:99
    Signature Algorithm: sha256WithRSAEncryption
        Issuer: C=US, ST=California, L=California, O=Alice CA Ltd., OU=Alice CA Ltd., CN=Alice CA Ltd./emailAddress=ca@ca_alice.com
        Validity
            Not Before: Jun 24 07:50:53 2018 GMT
            Not After : Jun 24 07:50:53 2019 GMT
        Subject: C=KR, ST=Seoul, L=Seoul, O=SNU, OU=MMLAB, CN=e.matls.com/emailAddress=e@matls.com
        Subject Public Key Info:
            Public Key Algorithm: rsaEncryption
                Public-Key: (2048 bit)
                Modulus:
                    00:ad:26:7e:61:8c:c5:f8:4d:c7:d8:41:eb:46:d8:
                    b6:50:9a:fe:0c:7c:64:1c:53:b5:3f:82:ba:6c:52:
                    58:f3:b3:01:47:5c:21:ba:43:a2:14:ca:44:84:3f:
                    2f:f2:4e:ab:0f:38:7f:da:50:b9:df:d2:91:29:2f:
                    f0:e1:f3:2c:ee:c5:01:df:8a:6f:99:3b:42:8b:1b:
                    33:b9:95:77:31:c6:fd:0b:f4:c5:99:9e:d2:da:18:
                    6a:8a:4f:7e:08:a0:7e:dd:cb:6a:b6:e1:34:30:34:
                    1d:e4:e8:64:ad:c7:57:1b:74:46:51:06:7f:fb:5e:
                    40:e0:34:34:d7:e2:66:c5:e1:9c:b3:c7:91:24:76:
                    59:78:92:67:6e:d0:1e:8a:33:06:77:16:97:1c:c0:
                    f9:5c:7e:28:46:e6:d3:58:2d:61:a1:68:3d:d6:6b:
                    a2:53:95:f5:2a:36:f6:86:3f:c9:ec:b6:45:15:97:
                    1e:e0:f5:f7:da:33:b3:91:b9:e2:5b:c7:e3:61:e3:
                    cd:23:3f:06:e3:99:64:73:c0:83:32:b1:b8:62:89:
                    65:b3:d5:d1:fb:23:40:94:8a:86:6a:35:d9:e4:6d:
                    02:e7:40:23:bc:01:69:79:c3:3f:96:93:e9:80:19:
                    8b:e8:21:96:f4:2a:ab:c5:9a:9d:25:96:45:e0:0f:
                    10:99
                Exponent: 65537 (0x10001)
        X509v3 extensions:
            X509v3 Basic Constraints: 
                CA:FALSE
            X509v3 Key Usage: 
                Digital Signature, Non Repudiation, Key Encipherment
            X509v3 Subject Alternative Name: 
                DNS:*.matls.com
    Signature Algorithm: sha256WithRSAEncryption
         79:4d:87:f8:85:e4:88:f4:53:f1:22:07:f2:3d:a9:ae:e4:93:
         22:ad:86:67:41:cd:92:eb:58:5a:c2:52:fe:e2:fb:62:5f:b1:
         95:d5:29:d4:1a:fc:1b:2c:4d:7d:f8:30:a6:59:4b:94:0b:e0:
         94:43:d5:78:88:c2:50:fd:6c:4b:37:44:85:10:f5:d5:fd:2f:
         e5:ec:e7:c6:e6:2c:d0:a2:dd:b3:f0:71:19:22:ea:11:fa:36:
         1d:cd:57:c7:05:d1:16:ce:57:84:17:cd:e2:c3:24:3f:10:5b:
         63:68:40:a6:a7:39:15:85:38:67:24:de:fb:54:17:1a:c0:bb:
         c0:36:55:cd:78:8a:b2:51:c5:f7:c7:82:62:6f:cf:1d:2d:13:
         6f:4f:43:27:e4:19:fe:62:da:b9:fc:47:e4:62:f0:e7:d0:90:
         95:d0:d8:27:74:a2:5e:47:04:e2:7a:d6:ce:4e:2a:cb:82:3b:
         26:78:70:e3:d7:90:a8:ef:c9:fc:35:ff:ce:34:88:da:1b:5a:
         3d:73:32:74:53:30:92:4c:cb:21:10:fe:cd:d8:3d:ac:68:bf:
         57:aa:8f:22:ca:0b:0d:fd:20:b0:6e:03:1c:d0:fa:8b:1e:0a:
         09:58:a5:a3:e8:5b:a5:50:75:aa:c1:8f:a7:77:c5:e7:23:09:
         e4:35:db:e6
-----BEGIN CERTIFICATE-----
MIID0jCCArqgAwIBAgIJANkpy5tFo7uZMA0GCSqGSIb3DQEBCwUAMIGfMQswCQYD
VQQGEwJVUzETMBEGA1UECAwKQ2FsaWZvcm5pYTETMBEGA1UEBwwKQ2FsaWZvcm5p
YTEWMBQGA1UECgwNQWxpY2UgQ0EgTHRkLjEWMBQGA1UECwwNQWxpY2UgQ0EgTHRk
LjEWMBQGA1UEAwwNQWxpY2UgQ0EgTHRkLjEeMBwGCSqGSIb3DQEJARYPY2FAY2Ff
YWxpY2UuY29tMB4XDTE4MDYyNDA3NTA1M1oXDTE5MDYyNDA3NTA1M1owfTELMAkG
A1UEBhMCS1IxDjAMBgNVBAgMBVNlb3VsMQ4wDAYDVQQHDAVTZW91bDEMMAoGA1UE
CgwDU05VMQ4wDAYDVQQLDAVNTUxBQjEUMBIGA1UEAwwLZS5tYXRscy5jb20xGjAY
BgkqhkiG9w0BCQEWC2VAbWF0bHMuY29tMIIBIjANBgkqhkiG9w0BAQEFAAOCAQ8A
MIIBCgKCAQEArSZ+YYzF+E3H2EHrRti2UJr+DHxkHFO1P4K6bFJY87MBR1whukOi
FMpEhD8v8k6rDzh/2lC539KRKS/w4fMs7sUB34pvmTtCixszuZV3Mcb9C/TFmZ7S
2hhqik9+CKB+3ctqtuE0MDQd5OhkrcdXG3RGUQZ/+15A4DQ01+JmxeGcs8eRJHZZ
eJJnbtAeijMGdxaXHMD5XH4oRubTWC1hoWg91muiU5X1Kjb2hj/J7LZFFZce4PX3
2jOzkbniW8fjYePNIz8G45lkc8CDMrG4Yolls9XR+yNAlIqGajXZ5G0C50AjvAFp
ecM/lpPpgBmL6CGW9CqrxZqdJZZF4A8QmQIDAQABozIwMDAJBgNVHRMEAjAAMAsG
A1UdDwQEAwIF4DAWBgNVHREEDzANggsqLm1hdGxzLmNvbTANBgkqhkiG9w0BAQsF
AAOCAQEAeU2H+IXkiPRT8SIH8j2pruSTIq2GZ0HNkutYWsJS/uL7Yl+xldUp1Br8
GyxNffgwpllLlAvglEPVeIjCUP1sSzdEhRD11f0v5eznxuYs0KLds/BxGSLqEfo2
Hc1XxwXRFs5XhBfN4sMkPxBbY2hApqc5FYU4ZyTe+1QXGsC7wDZVzXiKslHF98eC
Ym/PHS0Tb09DJ+QZ/mLaufxH5GLw59CQldDYJ3SiXkcE4nrWzk4qy4I7Jnhw49eQ
qO/J/DX/zjSI2htaPXMydFMwkkzLIRD+zdg9rGi/V6qPIsoLDf0gsG4DHND6ix4K
CVilo+hbpVB1qsGPp3fF5yMJ5DXb5g==
-----END CERTIFICATE-----
