Certificate:
    Data:
        Version: 3 (0x2)
        Serial Number:
            d9:29:cb:9b:45:a3:bb:90
    Signature Algorithm: sha256WithRSAEncryption
        Issuer: C=US, ST=California, L=California, O=Alice CA Ltd., OU=Alice CA Ltd., CN=Alice CA Ltd./emailAddress=ca@ca_alice.com
        Validity
            Not Before: Apr 13 12:42:25 2017 GMT
            Not After : Apr 13 12:42:25 2018 GMT
        Subject: C=US, ST=California, L=California, O=Alice Ltd., OU=Alice Ltd., CN=alice.com/emailAddress=info@alice.com
        Subject Public Key Info:
            Public Key Algorithm: rsaEncryption
                Public-Key: (2048 bit)
                Modulus:
                    00:a4:52:4a:8a:f3:68:e3:73:e8:30:4d:56:98:20:
                    db:eb:68:a9:14:cd:03:b6:d7:b3:f9:ed:47:92:e9:
                    d2:ce:d3:5d:8c:cd:15:c9:f1:0a:9c:73:d6:10:c2:
                    c0:73:ff:3c:3d:c8:92:89:83:7c:27:4c:54:ec:b4:
                    cb:e7:ff:c2:f5:84:5f:0a:51:80:8c:e4:51:68:d5:
                    d3:11:46:ad:25:0e:94:5f:81:ba:5c:c3:51:84:0d:
                    e4:3d:ee:31:f6:33:58:f1:72:14:4b:9f:6e:db:f7:
                    8c:97:db:d7:ba:fb:67:a7:f7:20:cf:a3:6d:b1:66:
                    bd:ce:3a:de:f8:8c:14:23:27:7f:02:00:d9:f2:25:
                    2f:ae:bf:13:8c:3d:75:5e:43:5c:54:93:11:4e:ce:
                    94:e8:5e:77:0b:9f:93:5e:9c:34:1c:dd:dd:75:2a:
                    a7:d7:2b:59:d4:08:de:d4:e3:1b:af:98:d6:c9:27:
                    f2:18:df:34:7d:5c:c0:42:92:b9:f3:cb:ee:0f:1a:
                    62:f9:d5:4d:44:4d:81:b8:74:31:0d:91:e6:5b:19:
                    40:dd:fb:4d:21:60:58:a2:95:06:1f:4a:db:cc:98:
                    39:a2:a7:e1:cf:17:62:65:2c:df:d3:4c:c8:db:2b:
                    92:91:b4:b8:85:48:c1:ee:48:ec:27:d5:fd:b2:1c:
                    69:ff
                Exponent: 65537 (0x10001)
        X509v3 extensions:
            X509v3 Basic Constraints: 
                CA:FALSE
            X509v3 Key Usage: 
                Digital Signature, Key Encipherment
            X509v3 Subject Alternative Name: 
                DNS:*.alice.com
    Signature Algorithm: sha256WithRSAEncryption
         18:d1:83:c3:f6:bd:3e:38:9d:01:4e:75:b8:55:ea:a8:1b:3d:
         d8:e3:7e:49:c9:ac:e4:09:a3:e8:3a:c9:10:9e:6f:13:5c:b1:
         ca:3e:59:ac:1a:ea:b8:aa:a9:a2:19:2b:c1:46:e0:74:3c:26:
         2b:35:39:ec:eb:c4:e0:ce:ed:51:17:e7:72:bc:b9:f4:f7:94:
         68:56:61:01:6d:71:7c:8a:04:a4:05:18:ec:40:25:21:19:c0:
         7d:af:bb:fe:a1:9d:4e:54:b7:68:e7:76:2d:09:d7:68:88:28:
         da:84:f6:4b:50:65:59:c5:b8:aa:e2:66:fa:0e:19:32:f7:39:
         bd:05:2d:e0:88:63:6b:a1:ff:77:7c:ef:e0:12:0a:8f:1f:b1:
         83:5f:17:6c:ec:94:c4:2f:a2:9a:29:31:ca:3d:70:d0:d5:eb:
         96:69:37:ac:d4:4a:06:ae:87:bd:6a:91:c7:6f:31:87:b7:af:
         94:a4:eb:89:90:28:f4:7c:70:d3:01:28:c1:ed:e1:c4:c7:79:
         13:4c:a0:41:87:8c:54:6e:ce:2d:eb:6a:45:f7:10:ee:a7:df:
         92:02:ae:3a:4b:6a:d4:08:34:8e:cd:f9:cc:83:82:0f:b4:47:
         25:09:02:ab:9d:64:60:79:bb:33:f2:88:45:63:ca:3b:9d:98:
         26:0a:37:4d
-----BEGIN CERTIFICATE-----
MIID6jCCAtKgAwIBAgIJANkpy5tFo7uQMA0GCSqGSIb3DQEBCwUAMIGfMQswCQYD
VQQGEwJVUzETMBEGA1UECAwKQ2FsaWZvcm5pYTETMBEGA1UEBwwKQ2FsaWZvcm5p
YTEWMBQGA1UECgwNQWxpY2UgQ0EgTHRkLjEWMBQGA1UECwwNQWxpY2UgQ0EgTHRk
LjEWMBQGA1UEAwwNQWxpY2UgQ0EgTHRkLjEeMBwGCSqGSIb3DQEJARYPY2FAY2Ff
YWxpY2UuY29tMB4XDTE3MDQxMzEyNDIyNVoXDTE4MDQxMzEyNDIyNVowgZQxCzAJ
BgNVBAYTAlVTMRMwEQYDVQQIDApDYWxpZm9ybmlhMRMwEQYDVQQHDApDYWxpZm9y
bmlhMRMwEQYDVQQKDApBbGljZSBMdGQuMRMwEQYDVQQLDApBbGljZSBMdGQuMRIw
EAYDVQQDDAlhbGljZS5jb20xHTAbBgkqhkiG9w0BCQEWDmluZm9AYWxpY2UuY29t
MIIBIjANBgkqhkiG9w0BAQEFAAOCAQ8AMIIBCgKCAQEApFJKivNo43PoME1WmCDb
62ipFM0Dttez+e1HkunSztNdjM0VyfEKnHPWEMLAc/88PciSiYN8J0xU7LTL5//C
9YRfClGAjORRaNXTEUatJQ6UX4G6XMNRhA3kPe4x9jNY8XIUS59u2/eMl9vXuvtn
p/cgz6NtsWa9zjre+IwUIyd/AgDZ8iUvrr8TjD11XkNcVJMRTs6U6F53C5+TXpw0
HN3ddSqn1ytZ1Aje1OMbr5jWySfyGN80fVzAQpK588vuDxpi+dVNRE2BuHQxDZHm
WxlA3ftNIWBYopUGH0rbzJg5oqfhzxdiZSzf00zI2yuSkbS4hUjB7kjsJ9X9shxp
/wIDAQABozIwMDAJBgNVHRMEAjAAMAsGA1UdDwQEAwIFoDAWBgNVHREEDzANggsq
LmFsaWNlLmNvbTANBgkqhkiG9w0BAQsFAAOCAQEAGNGDw/a9PjidAU51uFXqqBs9
2ON+Scms5Amj6DrJEJ5vE1yxyj5ZrBrquKqpohkrwUbgdDwmKzU57OvE4M7tURfn
cry59PeUaFZhAW1xfIoEpAUY7EAlIRnAfa+7/qGdTlS3aOd2LQnXaIgo2oT2S1Bl
WcW4quJm+g4ZMvc5vQUt4Ihja6H/d3zv4BIKjx+xg18XbOyUxC+imikxyj1w0NXr
lmk3rNRKBq6HvWqRx28xh7evlKTriZAo9Hxw0wEowe3hxMd5E0ygQYeMVG7OLetq
RfcQ7qffkgKuOktq1Ag0js35zIOCD7RHJQkCq51kYHm7M/KIRWPKO52YJgo3TQ==
-----END CERTIFICATE-----
