Certificate:
    Data:
        Version: 3 (0x2)
        Serial Number:
            d9:29:cb:9b:45:a3:bb:92
    Signature Algorithm: sha256WithRSAEncryption
        Issuer: C=US, ST=California, L=California, O=Alice CA Ltd., OU=Alice CA Ltd., CN=Alice CA Ltd./emailAddress=ca@ca_alice.com
        Validity
            Not Before: Apr 30 10:44:23 2017 GMT
            Not After : Apr 30 10:44:23 2018 GMT
        Subject: C=US, ST=California, L=California, O=Alice Ltd., OU=Alice Ltd., CN=*.alice.com/emailAddress=4096@alice.com
        Subject Public Key Info:
            Public Key Algorithm: rsaEncryption
                Public-Key: (4096 bit)
                Modulus:
                    00:f9:e8:06:8b:51:aa:c4:2f:5a:b7:f2:b0:c8:d8:
                    91:5d:8c:68:aa:c5:8b:af:e3:15:31:20:3c:11:f2:
                    c2:bc:e3:c3:d2:bc:0a:04:f8:ab:b7:56:2d:bb:d2:
                    52:28:df:9c:b5:f5:88:46:bd:37:8c:ee:29:c9:31:
                    63:a2:28:87:cb:80:39:c7:b7:38:24:41:03:ad:8b:
                    60:2d:89:68:8a:6d:08:23:7e:a7:49:2d:08:e3:6b:
                    ed:83:c2:a8:7c:0f:77:c7:86:7e:2c:ab:2b:9e:d3:
                    01:0d:3b:6e:b6:6b:89:52:ed:11:8a:b1:d2:fb:37:
                    0d:0d:5f:d3:79:76:8e:a3:3b:bc:f8:40:ef:e7:83:
                    3f:1f:ae:17:7b:ed:4b:a0:16:54:9b:a9:ff:fe:b9:
                    5d:03:ce:d5:2f:64:50:47:04:77:88:94:5f:f4:7b:
                    34:a3:ce:ca:ae:6e:66:0a:3c:a7:51:e0:94:0e:d4:
                    a8:a5:48:e1:33:da:f4:cd:dc:04:69:07:48:52:57:
                    86:60:78:01:ab:a4:e6:be:bc:d2:a0:82:46:48:db:
                    8d:94:1a:36:3a:a8:fe:92:53:75:d0:0c:b5:5c:6b:
                    4f:4a:97:ea:cc:0e:de:0a:c6:83:e6:23:ee:49:e6:
                    62:e1:d9:ea:8a:53:2c:fd:52:51:16:92:84:ed:09:
                    9e:65:c1:a7:14:88:c2:fb:66:92:4a:1b:22:95:00:
                    98:06:bb:ab:f8:bc:f6:aa:a0:18:47:90:00:be:82:
                    df:a1:8f:2a:9c:cf:7c:fc:6f:19:d0:73:f4:72:c3:
                    5b:10:c6:30:39:0f:3e:9d:e7:34:5b:c5:60:b5:52:
                    bb:21:05:9e:33:6e:a9:73:ca:f8:ae:5c:09:04:a1:
                    c3:cd:6b:6e:6b:63:db:48:df:70:9a:66:60:93:ab:
                    b2:8b:44:53:3d:dc:0c:48:14:f1:36:ba:b1:1a:2e:
                    af:af:5d:91:b0:39:ef:4e:af:87:3d:4a:1c:69:08:
                    80:d7:a2:a4:20:79:50:75:7b:9d:74:a2:5f:41:f0:
                    4f:3e:09:e2:10:4f:6d:d2:4d:24:6a:ed:b3:76:cc:
                    ad:95:80:e6:d4:11:6a:2e:21:44:c2:d6:7d:c1:0d:
                    f7:61:85:91:3e:f7:b1:67:1c:fc:9f:3a:a9:19:fd:
                    84:6d:fc:c3:54:d5:c1:ec:b1:a8:9b:fa:f2:62:2d:
                    0f:f6:17:e4:f0:bc:0b:1e:94:a4:05:89:ff:a8:3b:
                    42:80:9b:80:9d:00:ab:7e:3d:61:ec:fd:e9:46:6f:
                    93:1c:89:8c:db:9a:19:4e:8e:f5:28:7b:9e:a5:04:
                    bd:c7:f8:0e:b9:20:f2:41:69:21:83:6c:de:d4:66:
                    61:21:9f
                Exponent: 65537 (0x10001)
        X509v3 extensions:
            X509v3 Basic Constraints: 
                CA:FALSE
            X509v3 Key Usage: 
                Digital Signature, Key Encipherment
            X509v3 Subject Alternative Name: 
                DNS:*.alice.com
    Signature Algorithm: sha256WithRSAEncryption
         0f:ca:d9:c5:03:da:e3:cd:2e:2a:e2:c5:30:91:d2:33:e3:a2:
         80:05:f2:d8:46:bb:54:10:27:e4:6a:3b:5a:00:ec:6d:63:8a:
         7f:67:80:3a:d1:02:30:e6:02:75:24:a7:db:a1:ea:d2:b4:81:
         0d:42:79:8e:69:27:75:24:e6:47:5b:8c:dd:f0:5d:2a:a9:aa:
         82:32:51:70:36:0d:f3:8f:c3:4e:54:0e:28:63:94:75:0a:fc:
         a3:23:10:cd:ec:5d:fd:7a:8f:4a:da:1c:d5:c4:ff:eb:78:66:
         2a:79:8d:17:7e:94:bd:8c:a6:83:6c:2b:78:bf:f3:71:c0:65:
         90:6a:88:0a:bf:c0:42:4d:6c:f3:49:18:31:54:e7:83:72:13:
         50:fa:d0:5f:96:39:99:2a:52:9f:26:1e:e8:44:b6:cd:3d:0e:
         36:30:27:89:2a:93:c8:8d:0e:49:7b:bf:37:e9:73:5d:99:cd:
         2f:f8:d7:74:d0:01:ed:26:a9:c5:3e:61:a0:ae:6d:b0:e2:ce:
         bd:21:a5:e6:d9:d5:f8:77:25:9f:fe:b9:0b:31:45:09:0b:4e:
         7e:be:4b:e7:10:c2:85:a3:64:a1:b0:9e:52:35:25:61:f0:02:
         09:fd:db:96:c9:42:55:bc:8a:23:11:dd:ea:ce:53:da:48:9a:
         b5:c2:8e:9b
-----BEGIN CERTIFICATE-----
MIIE7DCCA9SgAwIBAgIJANkpy5tFo7uSMA0GCSqGSIb3DQEBCwUAMIGfMQswCQYD
VQQGEwJVUzETMBEGA1UECAwKQ2FsaWZvcm5pYTETMBEGA1UEBwwKQ2FsaWZvcm5p
YTEWMBQGA1UECgwNQWxpY2UgQ0EgTHRkLjEWMBQGA1UECwwNQWxpY2UgQ0EgTHRk
LjEWMBQGA1UEAwwNQWxpY2UgQ0EgTHRkLjEeMBwGCSqGSIb3DQEJARYPY2FAY2Ff
YWxpY2UuY29tMB4XDTE3MDQzMDEwNDQyM1oXDTE4MDQzMDEwNDQyM1owgZYxCzAJ
BgNVBAYTAlVTMRMwEQYDVQQIDApDYWxpZm9ybmlhMRMwEQYDVQQHDApDYWxpZm9y
bmlhMRMwEQYDVQQKDApBbGljZSBMdGQuMRMwEQYDVQQLDApBbGljZSBMdGQuMRQw
EgYDVQQDDAsqLmFsaWNlLmNvbTEdMBsGCSqGSIb3DQEJARYONDA5NkBhbGljZS5j
b20wggIiMA0GCSqGSIb3DQEBAQUAA4ICDwAwggIKAoICAQD56AaLUarEL1q38rDI
2JFdjGiqxYuv4xUxIDwR8sK848PSvAoE+Ku3Vi270lIo35y19YhGvTeM7inJMWOi
KIfLgDnHtzgkQQOti2AtiWiKbQgjfqdJLQjja+2Dwqh8D3fHhn4sqyue0wENO262
a4lS7RGKsdL7Nw0NX9N5do6jO7z4QO/ngz8frhd77UugFlSbqf/+uV0DztUvZFBH
BHeIlF/0ezSjzsqubmYKPKdR4JQO1KilSOEz2vTN3ARpB0hSV4ZgeAGrpOa+vNKg
gkZI242UGjY6qP6SU3XQDLVca09Kl+rMDt4KxoPmI+5J5mLh2eqKUyz9UlEWkoTt
CZ5lwacUiML7ZpJKGyKVAJgGu6v4vPaqoBhHkAC+gt+hjyqcz3z8bxnQc/Ryw1sQ
xjA5Dz6d5zRbxWC1UrshBZ4zbqlzyviuXAkEocPNa25rY9tI33CaZmCTq7KLRFM9
3AxIFPE2urEaLq+vXZGwOe9Or4c9ShxpCIDXoqQgeVB1e510ol9B8E8+CeIQT23S
TSRq7bN2zK2VgObUEWouIUTC1n3BDfdhhZE+97FnHPyfOqkZ/YRt/MNU1cHssaib
+vJiLQ/2F+TwvAselKQFif+oO0KAm4CdAKt+PWHs/elGb5MciYzbmhlOjvUoe56l
BL3H+A65IPJBaSGDbN7UZmEhnwIDAQABozIwMDAJBgNVHRMEAjAAMAsGA1UdDwQE
AwIFoDAWBgNVHREEDzANggsqLmFsaWNlLmNvbTANBgkqhkiG9w0BAQsFAAOCAQEA
D8rZxQPa480uKuLFMJHSM+OigAXy2Ea7VBAn5Go7WgDsbWOKf2eAOtECMOYCdSSn
26Hq0rSBDUJ5jmkndSTmR1uM3fBdKqmqgjJRcDYN84/DTlQOKGOUdQr8oyMQzexd
/XqPStoc1cT/63hmKnmNF36UvYymg2wreL/zccBlkGqICr/AQk1s80kYMVTng3IT
UPrQX5Y5mSpSnyYe6ES2zT0ONjAniSqTyI0OSXu/N+lzXZnNL/jXdNAB7SapxT5h
oK5tsOLOvSGl5tnV+Hcln/65CzFFCQtOfr5L5xDChaNkobCeUjUlYfACCf3blslC
VbyKIxHd6s5T2kiatcKOmw==
-----END CERTIFICATE-----
