Certificate:
    Data:
        Version: 3 (0x2)
        Serial Number: 15648262248024226726 (0xd929cb9b45a3bba6)
    Signature Algorithm: sha1WithRSAEncryption
        Issuer: C=US, ST=California, L=California, O=Alice CA Ltd., OU=Alice CA Ltd., CN=Alice CA Ltd./emailAddress=ca@ca_alice.com
        Validity
            Not Before: Feb  6 15:31:14 2019 GMT
            Not After : Feb  6 15:31:14 2020 GMT
        Subject: C=KR, ST=Seoul, L=Seoul, O=Middlebox-aware TLS, OU=maTLS, CN=*.matls.com/emailAddress=info@matls.com
        Subject Public Key Info:
            Public Key Algorithm: rsaEncryption
                Public-Key: (2048 bit)
                Modulus:
                    00:b2:69:e9:28:99:0e:04:4f:51:30:9b:fc:18:50:
                    0c:0a:90:d8:59:9e:64:ba:cb:08:2e:0d:57:22:2f:
                    24:2b:23:99:e4:11:01:cb:5a:44:12:99:66:06:f5:
                    d0:9a:5a:7d:d8:42:8f:79:2a:1a:09:87:0d:35:a9:
                    62:a4:a6:06:2b:4e:dd:83:8f:dc:8a:8e:e9:a8:fd:
                    6e:e7:c2:62:85:a7:c1:30:cb:a0:2a:f8:29:43:12:
                    eb:52:ab:27:d2:b2:76:b5:4a:24:d9:b6:f0:c3:cb:
                    bc:b9:65:55:07:a0:2b:4c:03:00:1a:f5:95:ee:55:
                    f4:c2:22:d2:1a:6c:80:91:a4:f9:18:56:e7:91:20:
                    30:34:fb:df:c5:bf:2a:59:ad:72:eb:84:c1:da:96:
                    b6:d1:b6:19:5f:5e:b9:ee:5e:52:d6:a6:3b:31:03:
                    e6:60:65:c8:cb:a7:82:69:79:14:cd:03:67:32:97:
                    1d:71:a6:92:af:c7:d8:b5:39:1f:a1:80:e4:1a:f3:
                    0c:d6:3a:50:d3:1d:c6:2d:21:f9:3b:db:d6:23:61:
                    6a:e7:27:55:10:f3:97:e9:27:1c:e8:df:2c:34:d6:
                    fa:85:11:5f:40:3a:4e:1c:b4:7c:08:e3:32:24:66:
                    fd:62:5f:9d:73:ac:86:0d:54:8b:84:63:02:48:74:
                    46:63
                Exponent: 65537 (0x10001)
        X509v3 extensions:
            X509v3 Basic Constraints: 
                CA:FALSE
            Netscape Comment: 
                OpenSSL Generated Certificate
            X509v3 Subject Key Identifier: 
                48:23:B9:C7:E8:E7:E1:69:62:B2:A6:A0:31:73:4F:AB:64:1C:76:E7
            X509v3 Authority Key Identifier: 
                keyid:97:84:38:61:DE:68:95:28:5B:E6:83:56:76:5D:3F:1F:CB:C8:61:70

    Signature Algorithm: sha1WithRSAEncryption
         37:6f:34:b9:1a:99:e3:f7:2e:67:0f:d8:2d:62:13:c2:1f:36:
         6b:88:68:d1:36:3c:16:dd:ae:7a:3e:50:27:1e:0a:07:13:1e:
         e0:c9:6a:75:fa:8e:39:2e:ab:22:fb:6c:8b:c1:33:f7:98:56:
         49:44:fd:24:96:a8:9b:2e:42:9a:bf:88:28:e6:35:4a:b6:dc:
         8f:3f:f4:fa:3f:40:72:c5:1e:91:f8:72:dd:38:ca:0e:d1:46:
         51:60:b6:71:f5:4c:b6:25:39:2a:dd:11:b7:c1:8c:59:56:4e:
         ca:65:bd:47:08:37:68:0a:b0:06:45:4a:e4:05:c7:b6:11:78:
         45:d3:b0:f4:b2:8c:82:32:9f:be:b5:46:bc:6c:df:ae:48:f2:
         74:f1:e1:95:3f:50:e5:8b:08:a5:59:61:61:0c:1a:71:9a:b2:
         80:ac:d4:62:77:83:6e:16:01:56:09:eb:e8:73:16:52:b9:3c:
         f5:f7:ee:d4:4d:c3:cb:5b:a0:1a:1c:d8:95:b1:c4:9e:ca:f4:
         84:2b:66:11:de:d7:19:5f:22:e1:5d:18:03:28:36:b1:30:61:
         df:58:c5:00:8f:73:72:42:d9:79:56:a0:92:63:99:ef:8e:6a:
         43:6d:c1:3b:85:81:f2:4a:41:f7:43:80:87:e7:cb:b6:f5:81:
         72:df:5f:72
-----BEGIN CERTIFICATE-----
MIIELzCCAxegAwIBAgIJANkpy5tFo7umMA0GCSqGSIb3DQEBBQUAMIGfMQswCQYD
VQQGEwJVUzETMBEGA1UECAwKQ2FsaWZvcm5pYTETMBEGA1UEBwwKQ2FsaWZvcm5p
YTEWMBQGA1UECgwNQWxpY2UgQ0EgTHRkLjEWMBQGA1UECwwNQWxpY2UgQ0EgTHRk
LjEWMBQGA1UEAwwNQWxpY2UgQ0EgTHRkLjEeMBwGCSqGSIb3DQEJARYPY2FAY2Ff
YWxpY2UuY29tMB4XDTE5MDIwNjE1MzExNFoXDTIwMDIwNjE1MzExNFowgZAxCzAJ
BgNVBAYTAktSMQ4wDAYDVQQIDAVTZW91bDEOMAwGA1UEBwwFU2VvdWwxHDAaBgNV
BAoME01pZGRsZWJveC1hd2FyZSBUTFMxDjAMBgNVBAsMBW1hVExTMRQwEgYDVQQD
DAsqLm1hdGxzLmNvbTEdMBsGCSqGSIb3DQEJARYOaW5mb0BtYXRscy5jb20wggEi
MA0GCSqGSIb3DQEBAQUAA4IBDwAwggEKAoIBAQCyaekomQ4ET1Ewm/wYUAwKkNhZ
nmS6ywguDVciLyQrI5nkEQHLWkQSmWYG9dCaWn3YQo95KhoJhw01qWKkpgYrTt2D
j9yKjumo/W7nwmKFp8Ewy6Aq+ClDEutSqyfSsna1SiTZtvDDy7y5ZVUHoCtMAwAa
9ZXuVfTCItIabICRpPkYVueRIDA0+9/FvypZrXLrhMHalrbRthlfXrnuXlLWpjsx
A+ZgZcjLp4JpeRTNA2cylx1xppKvx9i1OR+hgOQa8wzWOlDTHcYtIfk729YjYWrn
J1UQ85fpJxzo3yw01vqFEV9AOk4ctHwI4zIkZv1iX51zrIYNVIuEYwJIdEZjAgMB
AAGjezB5MAkGA1UdEwQCMAAwLAYJYIZIAYb4QgENBB8WHU9wZW5TU0wgR2VuZXJh
dGVkIENlcnRpZmljYXRlMB0GA1UdDgQWBBRII7nH6OfhaWKypqAxc0+rZBx25zAf
BgNVHSMEGDAWgBSXhDhh3miVKFvmg1Z2XT8fy8hhcDANBgkqhkiG9w0BAQUFAAOC
AQEAN280uRqZ4/cuZw/YLWITwh82a4ho0TY8Ft2uej5QJx4KBxMe4MlqdfqOOS6r
Ivtsi8Ez95hWSUT9JJaomy5Cmr+IKOY1Srbcjz/0+j9AcsUekfhy3TjKDtFGUWC2
cfVMtiU5Kt0Rt8GMWVZOymW9Rwg3aAqwBkVK5AXHthF4RdOw9LKMgjKfvrVGvGzf
rkjydPHhlT9Q5YsIpVlhYQwacZqygKzUYneDbhYBVgnr6HMWUrk89ffu1E3Dy1ug
GhzYlbHEnsr0hCtmEd7XGV8i4V0YAyg2sTBh31jFAI9zckLZeVagkmOZ745qQ23B
O4WB8kpB90OAh+fLtvWBct9fcg==
-----END CERTIFICATE-----
