Certificate:
    Data:
        Version: 3 (0x2)
        Serial Number:
            d0:97:12:07:db:30:10:fe
    Signature Algorithm: sha256WithRSAEncryption
        Issuer: C=KR, ST=Seoul, L=Seoul, O=Carol CDN Ltd., OU=Carol CDN Ltd., CN=Carol CDN Ltd./emailAddress=ca@ca_carol.com
        Validity
            Not Before: Apr 11 00:12:25 2017 GMT
            Not After : Apr 11 00:12:25 2018 GMT
        Subject: C=KR, ST=Seoul, L=Seoul, O=Carol CDN Ltd., OU=Carol CDN Ltd., CN=*.carol.com/emailAddress=info@carol.com
        Subject Public Key Info:
            Public Key Algorithm: rsaEncryption
                Public-Key: (2048 bit)
                Modulus:
                    00:b4:17:d7:9e:92:b1:47:c1:ab:67:f7:e4:8a:63:
                    70:38:1e:17:34:e6:6a:f4:f1:4a:9a:f9:05:3f:94:
                    4b:39:93:f8:c0:eb:22:5e:95:7a:94:c6:20:1e:8d:
                    eb:00:1b:11:dd:c4:9d:50:53:68:51:64:09:9c:23:
                    76:9e:9f:64:11:e7:3f:4d:14:70:f8:22:ac:b8:e4:
                    8f:35:00:11:a9:30:a5:fb:ab:05:97:85:32:54:e9:
                    1e:56:c5:b1:e2:86:f0:87:1b:4e:0a:14:f8:ad:9e:
                    15:b5:8a:22:7b:fa:17:96:86:09:9f:96:2d:cb:1b:
                    93:7a:1b:0b:61:27:65:5c:fd:06:4b:c5:5e:7d:a5:
                    2a:62:f2:5a:95:99:5d:50:2f:10:5a:7d:bd:67:5b:
                    a5:15:26:de:3d:f3:80:c4:7d:77:52:72:38:ca:83:
                    1b:c6:d3:51:26:d1:bb:09:72:2c:b3:36:d2:bc:1c:
                    44:0e:05:ac:89:7f:3c:71:8f:79:9a:d3:8a:21:e6:
                    1b:55:c6:b5:37:5c:14:82:4d:1d:48:b7:07:3a:85:
                    47:6d:3c:fb:20:ad:fa:57:c5:ef:17:46:11:32:27:
                    f7:db:4c:69:57:a0:15:ca:59:2c:68:5a:16:c6:2f:
                    93:dc:79:5c:49:52:b2:fa:4d:a3:75:70:d7:76:b3:
                    67:73
                Exponent: 65537 (0x10001)
        X509v3 extensions:
            X509v3 Basic Constraints: 
                CA:FALSE
            X509v3 Key Usage: 
                Digital Signature, Non Repudiation, Key Encipherment
            X509v3 Subject Alternative Name: 
                DNS:*.alice.com, DNS:*.carol.com
    Signature Algorithm: sha256WithRSAEncryption
         50:17:1a:cf:29:c2:ea:fe:45:0b:75:d1:2a:4e:2d:24:01:c7:
         78:68:7a:b6:fd:8b:27:38:34:66:a2:a1:88:5c:70:38:b6:98:
         80:d0:8c:e6:f9:ef:ec:21:fd:e3:82:4c:e7:d8:a8:84:ad:88:
         81:c3:92:0b:d4:fc:8c:a9:da:e4:ee:24:44:06:a7:6c:1e:fa:
         60:00:84:3b:0f:88:ef:bd:f8:91:12:19:63:44:db:03:c9:e7:
         d4:9e:1f:64:49:a9:0d:9d:44:42:f3:1e:46:d6:63:24:4a:c7:
         71:3a:20:db:6f:61:43:ef:c0:68:1e:74:6a:f8:1c:d7:f4:75:
         51:4a:24:b0:eb:ec:2b:01:de:51:3a:8f:27:f3:0c:73:e7:d0:
         e1:57:4d:37:14:fd:f4:52:75:58:7f:ac:67:ec:54:80:d6:03:
         03:33:bb:25:c7:b4:9c:61:11:7e:ec:d8:22:45:9f:34:30:9a:
         7d:9c:0d:49:fd:b1:50:fc:49:88:4f:1d:04:0b:17:d1:9e:db:
         3c:44:f7:46:09:38:60:94:cd:89:af:f2:33:ec:31:1a:01:59:
         e5:e4:ea:69:f0:37:f2:f6:87:8d:39:a6:d8:b4:fc:56:f1:c3:
         ef:5e:9e:cd:67:83:0c:97:44:45:73:72:6c:56:30:e2:ed:5f:
         5e:5c:58:7e
-----BEGIN CERTIFICATE-----
MIID8DCCAtigAwIBAgIJANCXEgfbMBD+MA0GCSqGSIb3DQEBCwUAMIGYMQswCQYD
VQQGEwJLUjEOMAwGA1UECAwFU2VvdWwxDjAMBgNVBAcMBVNlb3VsMRcwFQYDVQQK
DA5DYXJvbCBDRE4gTHRkLjEXMBUGA1UECwwOQ2Fyb2wgQ0ROIEx0ZC4xFzAVBgNV
BAMMDkNhcm9sIENETiBMdGQuMR4wHAYJKoZIhvcNAQkBFg9jYUBjYV9jYXJvbC5j
b20wHhcNMTcwNDExMDAxMjI1WhcNMTgwNDExMDAxMjI1WjCBlDELMAkGA1UEBhMC
S1IxDjAMBgNVBAgMBVNlb3VsMQ4wDAYDVQQHDAVTZW91bDEXMBUGA1UECgwOQ2Fy
b2wgQ0ROIEx0ZC4xFzAVBgNVBAsMDkNhcm9sIENETiBMdGQuMRQwEgYDVQQDDAsq
LmNhcm9sLmNvbTEdMBsGCSqGSIb3DQEJARYOaW5mb0BjYXJvbC5jb20wggEiMA0G
CSqGSIb3DQEBAQUAA4IBDwAwggEKAoIBAQC0F9eekrFHwatn9+SKY3A4Hhc05mr0
8Uqa+QU/lEs5k/jA6yJelXqUxiAejesAGxHdxJ1QU2hRZAmcI3aen2QR5z9NFHD4
Iqy45I81ABGpMKX7qwWXhTJU6R5WxbHihvCHG04KFPitnhW1iiJ7+heWhgmfli3L
G5N6GwthJ2Vc/QZLxV59pSpi8lqVmV1QLxBafb1nW6UVJt4984DEfXdScjjKgxvG
01Em0bsJciyzNtK8HEQOBayJfzxxj3ma04oh5htVxrU3XBSCTR1Itwc6hUdtPPsg
rfpXxe8XRhEyJ/fbTGlXoBXKWSxoWhbGL5PceVxJUrL6TaN1cNd2s2dzAgMBAAGj
PzA9MAkGA1UdEwQCMAAwCwYDVR0PBAQDAgXgMCMGA1UdEQQcMBqCCyouYWxpY2Uu
Y29tggsqLmNhcm9sLmNvbTANBgkqhkiG9w0BAQsFAAOCAQEAUBcazynC6v5FC3XR
Kk4tJAHHeGh6tv2LJzg0ZqKhiFxwOLaYgNCM5vnv7CH944JM59iohK2IgcOSC9T8
jKna5O4kRAanbB76YACEOw+I7734kRIZY0TbA8nn1J4fZEmpDZ1EQvMeRtZjJErH
cTog229hQ+/AaB50avgc1/R1UUoksOvsKwHeUTqPJ/MMc+fQ4VdNNxT99FJ1WH+s
Z+xUgNYDAzO7Jce0nGERfuzYIkWfNDCafZwNSf2xUPxJiE8dBAsX0Z7bPET3Rgk4
YJTNia/yM+wxGgFZ5eTqafA38vaHjTmm2LT8VvHD716ezWeDDJdERXNybFYw4u1f
XlxYfg==
-----END CERTIFICATE-----
