Certificate:
    Data:
        Version: 3 (0x2)
        Serial Number:
            d0:97:12:07:db:30:11:02
    Signature Algorithm: sha256WithRSAEncryption
        Issuer: C=KR, ST=Seoul, L=Seoul, O=Carol CDN Ltd., OU=Carol CDN Ltd., CN=Carol CDN Ltd./emailAddress=ca@ca_carol.com
        Validity
            Not Before: May 16 10:49:20 2017 GMT
            Not After : May 16 10:49:20 2018 GMT
        Subject: C=KR, ST=Seoul, L=Seoul, O=Carol CDN Inc., OU=CDN, CN=www.carol.com/emailAddress=edge@carol.com
        Subject Public Key Info:
            Public Key Algorithm: id-ecPublicKey
                Public-Key: (256 bit)
                pub: 
                    04:8c:45:dd:84:86:49:bd:ba:d8:3e:7d:7a:d0:f7:
                    53:17:86:20:45:58:71:db:10:8d:b7:7f:ce:75:c7:
                    3a:e6:b8:57:7e:0a:84:0b:a3:f6:fa:d3:e7:98:05:
                    46:9f:ce:8a:12:a7:3f:f9:99:3a:d2:58:94:56:3f:
                    f3:3e:8a:8f:19
                ASN1 OID: prime256v1
                NIST CURVE: P-256
        X509v3 extensions:
            X509v3 Basic Constraints: 
                CA:FALSE
            X509v3 Key Usage: 
                Digital Signature, Key Encipherment, Key Agreement
            X509v3 Subject Alternative Name: 
                DNS:*.alice.com, DNS:*.carol.com
    Signature Algorithm: sha256WithRSAEncryption
         5e:3f:fc:d8:97:39:20:bd:fd:67:fb:e6:cc:64:c0:37:43:de:
         0d:42:55:d1:b1:76:54:0d:c1:44:2f:ba:7b:8b:4f:c7:58:e1:
         c8:57:b4:7f:62:9e:5d:ae:55:e7:60:40:b9:64:96:1e:fa:77:
         6a:9f:99:13:82:79:1c:1b:2f:52:d9:2a:95:f3:a5:c2:66:c1:
         9f:da:90:39:3b:07:81:3f:29:8c:e8:fc:04:49:58:ce:88:cb:
         5a:9a:ea:75:28:b7:70:5e:74:76:30:4d:5b:04:71:d1:f7:cc:
         66:39:e5:27:3c:57:0e:b1:8e:b6:3c:ae:51:1c:37:6f:30:19:
         0a:f0:f6:89:1b:33:a0:b1:cf:fa:4b:87:dd:ff:89:62:41:8c:
         d0:11:92:de:5d:5c:c9:8e:08:27:99:c0:e9:9e:5c:b3:26:f0:
         bd:31:00:b9:53:08:ea:fc:45:57:ee:7c:57:59:9a:8e:85:b2:
         79:dc:85:a4:c7:1a:a9:67:d7:b2:3f:72:4c:b8:99:cf:af:d2:
         35:ce:f4:25:c2:86:ae:86:57:a7:57:8e:ec:e3:31:8a:32:48:
         87:1c:c8:76:af:6e:62:00:9b:5a:ab:7a:94:f1:6d:af:b1:5c:
         62:84:22:bf:75:a1:61:a5:43:4f:c2:d1:14:bc:7c:a9:ba:20:
         7a:b0:bd:d7
-----BEGIN CERTIFICATE-----
MIIDHDCCAgSgAwIBAgIJANCXEgfbMBECMA0GCSqGSIb3DQEBCwUAMIGYMQswCQYD
VQQGEwJLUjEOMAwGA1UECAwFU2VvdWwxDjAMBgNVBAcMBVNlb3VsMRcwFQYDVQQK
DA5DYXJvbCBDRE4gTHRkLjEXMBUGA1UECwwOQ2Fyb2wgQ0ROIEx0ZC4xFzAVBgNV
BAMMDkNhcm9sIENETiBMdGQuMR4wHAYJKoZIhvcNAQkBFg9jYUBjYV9jYXJvbC5j
b20wHhcNMTcwNTE2MTA0OTIwWhcNMTgwNTE2MTA0OTIwWjCBizELMAkGA1UEBhMC
S1IxDjAMBgNVBAgMBVNlb3VsMQ4wDAYDVQQHDAVTZW91bDEXMBUGA1UECgwOQ2Fy
b2wgQ0ROIEluYy4xDDAKBgNVBAsMA0NETjEWMBQGA1UEAwwNd3d3LmNhcm9sLmNv
bTEdMBsGCSqGSIb3DQEJARYOZWRnZUBjYXJvbC5jb20wWTATBgcqhkjOPQIBBggq
hkjOPQMBBwNCAASMRd2Ehkm9utg+fXrQ91MXhiBFWHHbEI23f851xzrmuFd+CoQL
o/b60+eYBUafzooSpz/5mTrSWJRWP/M+io8Zoz8wPTAJBgNVHRMEAjAAMAsGA1Ud
DwQEAwIDqDAjBgNVHREEHDAaggsqLmFsaWNlLmNvbYILKi5jYXJvbC5jb20wDQYJ
KoZIhvcNAQELBQADggEBAF4//NiXOSC9/Wf75sxkwDdD3g1CVdGxdlQNwUQvunuL
T8dY4chXtH9inl2uVedgQLlklh76d2qfmROCeRwbL1LZKpXzpcJmwZ/akDk7B4E/
KYzo/ARJWM6Iy1qa6nUot3BedHYwTVsEcdH3zGY55Sc8Vw6xjrY8rlEcN28wGQrw
9okbM6Cxz/pLh93/iWJBjNARkt5dXMmOCCeZwOmeXLMm8L0xALlTCOr8RVfufFdZ
mo6FsnnchaTHGqln17I/cky4mc+v0jXO9CXChq6GV6dXjuzjMYoySIccyHavbmIA
m1qrepTxba+xXGKEIr91oWGlQ0/C0RS8fKm6IHqwvdc=
-----END CERTIFICATE-----
