Certificate:
    Data:
        Version: 3 (0x2)
        Serial Number:
            d0:97:12:07:db:30:11:03
        Signature Algorithm: sha256WithRSAEncryption
        Issuer: C=KR, ST=Seoul, L=Seoul, O=Carol CDN Ltd., OU=Carol CDN Ltd., CN=Carol CDN Ltd./emailAddress=ca@ca_carol.com
        Validity
            Not Before: Apr 19 07:56:49 2018 GMT
            Not After : Apr 19 07:56:49 2019 GMT
        Subject: C=KR, ST=Seoul, L=Seoul, O=Carol CDN Inc., OU=CDN, CN=*.carol.com/emailAddress=edge@carol.com
        Subject Public Key Info:
            Public Key Algorithm: rsaEncryption
                RSA Public-Key: (2048 bit)
                Modulus:
                    00:c1:38:c5:92:30:56:dc:dc:e8:9e:51:33:36:47:
                    dc:fc:5e:25:ac:40:7c:71:9c:9a:51:09:2b:43:68:
                    56:a8:35:a3:c6:0d:fe:d0:71:9e:fe:5d:8a:d6:ed:
                    0b:55:27:47:cf:c6:f0:ea:da:0a:88:b4:ca:d4:4c:
                    de:30:ee:32:f9:f9:05:7c:fb:c2:68:6b:1a:64:b5:
                    46:1a:aa:09:71:7e:2c:2f:87:cd:91:36:e4:9b:ca:
                    4f:4e:60:3e:92:ea:fe:d7:c7:2e:d7:01:c2:65:5c:
                    6a:c7:e7:84:47:31:c0:ae:32:75:60:09:c9:32:4d:
                    8e:1d:90:f6:c6:54:97:ac:b3:0a:2f:4d:25:c5:0c:
                    f5:1c:59:42:32:34:17:6b:be:63:99:c0:3e:00:6b:
                    cd:40:c5:2f:bc:17:65:33:20:7a:03:b1:f7:12:6b:
                    09:9e:5c:c1:f2:a4:0d:94:47:36:73:00:d5:3c:67:
                    45:f8:69:49:9e:38:60:21:ba:a1:d4:0e:37:1e:2a:
                    2d:06:15:85:db:78:f4:35:9e:65:8e:82:40:5e:3e:
                    0b:7d:4d:37:c3:96:49:c4:33:15:f6:ee:96:d0:21:
                    64:3f:e8:f3:a3:df:ed:55:9b:49:f6:99:38:e2:41:
                    db:f4:36:b9:5f:f6:47:c6:eb:4e:34:8e:67:1f:b8:
                    00:f5
                Exponent: 65537 (0x10001)
        X509v3 extensions:
            X509v3 Basic Constraints: 
                CA:FALSE
            X509v3 Key Usage: 
                Digital Signature, Non Repudiation, Key Encipherment
            X509v3 Subject Alternative Name: 
                DNS:*.alice.com, DNS:*.carol.com
    Signature Algorithm: sha256WithRSAEncryption
         23:21:c8:32:f2:a4:ad:7a:3d:20:46:80:a8:59:53:32:ff:fe:
         de:83:d6:1f:4c:32:9e:b1:d1:9b:25:5c:d9:e5:7e:52:5c:d0:
         97:fa:b7:6f:cb:0d:f9:75:a8:72:16:ca:4f:54:5b:a1:23:72:
         61:15:09:4a:dd:f6:ce:86:c0:26:ae:04:fd:7a:7f:11:c4:df:
         42:f3:66:ea:24:c4:e7:cc:e1:2a:97:a2:fd:3a:ca:83:8c:f4:
         05:db:99:2a:bd:22:3d:77:03:8f:53:0e:0a:c0:f6:55:2e:64:
         b6:39:aa:fc:bc:f6:da:8f:8e:a0:57:49:0b:0a:d3:62:12:3a:
         db:4b:a3:58:46:86:9a:dc:ec:31:66:d3:5d:9e:da:ff:38:f8:
         db:f0:a8:4d:15:b3:9f:e6:ae:46:7d:c7:b2:49:27:ab:8f:e4:
         df:22:f3:4a:1c:0f:da:4a:f0:64:15:40:30:d3:13:71:9f:a3:
         8b:f1:c8:fd:db:5f:90:ea:a4:8a:65:22:fe:08:dd:5f:3d:b2:
         26:5f:34:ac:2f:2b:74:4e:3f:c2:e9:58:65:9c:0a:bb:a9:4d:
         bd:28:f7:dd:f3:4c:79:a0:2a:e3:e0:2d:21:ee:d9:0d:fc:7d:
         8d:9f:eb:61:d8:c6:7c:38:4a:71:b0:66:75:a7:df:89:e7:b5:
         1b:e2:68:70
-----BEGIN CERTIFICATE-----
MIID5TCCAs2gAwIBAgIJANCXEgfbMBEDMA0GCSqGSIb3DQEBCwUAMIGYMQswCQYD
VQQGEwJLUjEOMAwGA1UECAwFU2VvdWwxDjAMBgNVBAcMBVNlb3VsMRcwFQYDVQQK
DA5DYXJvbCBDRE4gTHRkLjEXMBUGA1UECwwOQ2Fyb2wgQ0ROIEx0ZC4xFzAVBgNV
BAMMDkNhcm9sIENETiBMdGQuMR4wHAYJKoZIhvcNAQkBFg9jYUBjYV9jYXJvbC5j
b20wHhcNMTgwNDE5MDc1NjQ5WhcNMTkwNDE5MDc1NjQ5WjCBiTELMAkGA1UEBhMC
S1IxDjAMBgNVBAgMBVNlb3VsMQ4wDAYDVQQHDAVTZW91bDEXMBUGA1UECgwOQ2Fy
b2wgQ0ROIEluYy4xDDAKBgNVBAsMA0NETjEUMBIGA1UEAwwLKi5jYXJvbC5jb20x
HTAbBgkqhkiG9w0BCQEWDmVkZ2VAY2Fyb2wuY29tMIIBIjANBgkqhkiG9w0BAQEF
AAOCAQ8AMIIBCgKCAQEAwTjFkjBW3NzonlEzNkfc/F4lrEB8cZyaUQkrQ2hWqDWj
xg3+0HGe/l2K1u0LVSdHz8bw6toKiLTK1EzeMO4y+fkFfPvCaGsaZLVGGqoJcX4s
L4fNkTbkm8pPTmA+kur+18cu1wHCZVxqx+eERzHArjJ1YAnJMk2OHZD2xlSXrLMK
L00lxQz1HFlCMjQXa75jmcA+AGvNQMUvvBdlMyB6A7H3EmsJnlzB8qQNlEc2cwDV
PGdF+GlJnjhgIbqh1A43HiotBhWF23j0NZ5ljoJAXj4LfU03w5ZJxDMV9u6W0CFk
P+jzo9/tVZtJ9pk44kHb9Da5X/ZHxutONI5nH7gA9QIDAQABoz8wPTAJBgNVHRME
AjAAMAsGA1UdDwQEAwIF4DAjBgNVHREEHDAaggsqLmFsaWNlLmNvbYILKi5jYXJv
bC5jb20wDQYJKoZIhvcNAQELBQADggEBACMhyDLypK16PSBGgKhZUzL//t6D1h9M
Mp6x0ZslXNnlflJc0Jf6t2/LDfl1qHIWyk9UW6EjcmEVCUrd9s6GwCauBP16fxHE
30LzZuokxOfM4SqXov06yoOM9AXbmSq9Ij13A49TDgrA9lUuZLY5qvy89tqPjqBX
SQsK02ISOttLo1hGhprc7DFm012e2v84+NvwqE0Vs5/mrkZ9x7JJJ6uP5N8i80oc
D9pK8GQVQDDTE3Gfo4vxyP3bX5DqpIplIv4I3V89siZfNKwvK3ROP8LpWGWcCrup
Tb0o993zTHmgKuPgLSHu2Q38fY2f62HYxnw4SnGwZnWn34nntRviaHA=
-----END CERTIFICATE-----
