Certificate:
    Data:
        Version: 3 (0x2)
        Serial Number: 15648262248024226707 (0xd929cb9b45a3bb93)
    Signature Algorithm: sha256WithRSAEncryption
        Issuer: C=US, ST=California, L=California, O=Alice CA Ltd., OU=Alice CA Ltd., CN=Alice CA Ltd./emailAddress=ca@ca_alice.com
        Validity
            Not Before: May  4 12:32:54 2018 GMT
            Not After : May  4 12:32:54 2019 GMT
        Subject: C=KR, ST=Seoul, L=Seoul, O=SNU, OU=MMLAB, CN=www.matls.com/emailAddress=matls@matls.com
        Subject Public Key Info:
            Public Key Algorithm: rsaEncryption
                Public-Key: (2048 bit)
                Modulus:
                    00:b7:8e:cf:7d:99:3e:8b:97:de:e7:6a:18:f4:39:
                    82:4f:e7:5a:65:e3:e5:d0:b3:6b:c3:e9:b6:94:79:
                    25:4e:1e:2f:13:ee:03:17:1b:f2:e7:9a:01:1d:ef:
                    73:ed:29:63:a7:b0:c2:47:1a:85:5a:d2:2e:34:36:
                    dd:da:a6:ce:9f:23:a6:59:ee:26:bd:a3:62:c2:b2:
                    64:b8:70:af:cf:ab:fb:ee:8e:20:ae:82:e0:08:c0:
                    fe:09:7c:28:4e:8b:bf:e5:94:10:f0:4f:85:af:47:
                    41:ed:66:84:3f:de:0a:8c:7f:99:08:19:b2:d1:a8:
                    fb:c7:a3:d5:fe:31:81:7e:96:d1:96:88:77:69:c7:
                    bc:95:10:66:da:4d:e6:b9:ff:72:57:77:00:74:8f:
                    71:15:6b:06:20:eb:66:72:b8:71:46:ac:c8:5e:4b:
                    c0:88:5d:ab:2e:72:10:d9:e9:c6:d2:5a:b5:35:3e:
                    81:4e:69:de:a5:b0:79:7d:fe:b3:a0:37:e4:39:2c:
                    b0:5f:25:fc:d1:44:24:e4:0e:7a:46:2b:c5:01:af:
                    13:98:23:9b:ca:24:21:cb:e2:c5:f2:f1:14:bd:11:
                    72:d1:81:42:ae:be:b5:59:c1:c6:c3:46:61:c0:f3:
                    1e:fb:7d:ea:e7:ab:eb:52:9c:33:5b:49:30:9e:b0:
                    c0:7f
                Exponent: 65537 (0x10001)
        X509v3 extensions:
            X509v3 Basic Constraints: 
                CA:FALSE
            X509v3 Key Usage: 
                Digital Signature, Non Repudiation, Key Encipherment
            X509v3 Subject Alternative Name: 
                DNS:*.matls.com
    Signature Algorithm: sha256WithRSAEncryption
         88:79:07:59:3f:ea:01:97:ff:c1:2e:02:b8:f9:4b:8a:2f:ae:
         af:7c:6f:6c:39:4b:fa:03:f1:8a:6a:d8:a1:d1:13:d0:29:0b:
         22:00:cc:70:0e:bc:1e:eb:81:1e:ab:db:be:04:8c:d6:0f:5f:
         9b:27:fe:37:1a:d8:c9:7f:3f:6d:64:06:e1:91:05:9f:04:bb:
         9d:4c:69:0d:86:b2:17:98:b8:5c:04:92:24:94:48:82:16:8a:
         7e:54:a2:b1:09:3d:83:36:6e:aa:f6:4e:04:b4:19:4e:4d:49:
         dd:27:4b:02:16:81:1f:43:a9:88:33:3c:f7:65:07:3f:87:d5:
         dc:ce:19:5b:5a:69:76:3a:61:27:eb:6e:8f:fe:02:70:01:41:
         7e:2d:fc:08:fd:1d:94:fa:01:bb:29:9b:71:f6:33:e5:16:82:
         51:26:d6:df:1b:10:42:c7:6b:93:b6:ac:b4:b0:21:d8:9f:36:
         4f:a1:83:d0:2d:41:e0:02:98:1c:ab:61:31:9c:53:4d:16:04:
         37:95:c7:02:69:74:91:5e:b1:12:ad:8a:4c:2e:84:e5:47:6d:
         ca:96:00:19:0d:91:b7:43:e4:b2:34:2d:7e:ea:b4:c5:79:42:
         4c:49:fb:41:5d:eb:ec:40:43:a4:fa:b5:95:23:87:ea:9d:0b:
         c0:20:d4:54
-----BEGIN CERTIFICATE-----
MIID2TCCAsGgAwIBAgIJANkpy5tFo7uTMA0GCSqGSIb3DQEBCwUAMIGfMQswCQYD
VQQGEwJVUzETMBEGA1UECAwKQ2FsaWZvcm5pYTETMBEGA1UEBwwKQ2FsaWZvcm5p
YTEWMBQGA1UECgwNQWxpY2UgQ0EgTHRkLjEWMBQGA1UECwwNQWxpY2UgQ0EgTHRk
LjEWMBQGA1UEAwwNQWxpY2UgQ0EgTHRkLjEeMBwGCSqGSIb3DQEJARYPY2FAY2Ff
YWxpY2UuY29tMB4XDTE4MDUwNDEyMzI1NFoXDTE5MDUwNDEyMzI1NFowgYMxCzAJ
BgNVBAYTAktSMQ4wDAYDVQQIDAVTZW91bDEOMAwGA1UEBwwFU2VvdWwxDDAKBgNV
BAoMA1NOVTEOMAwGA1UECwwFTU1MQUIxFjAUBgNVBAMMDXd3dy5tYXRscy5jb20x
HjAcBgkqhkiG9w0BCQEWD21hdGxzQG1hdGxzLmNvbTCCASIwDQYJKoZIhvcNAQEB
BQADggEPADCCAQoCggEBALeOz32ZPouX3udqGPQ5gk/nWmXj5dCza8PptpR5JU4e
LxPuAxcb8ueaAR3vc+0pY6ewwkcahVrSLjQ23dqmzp8jplnuJr2jYsKyZLhwr8+r
++6OIK6C4AjA/gl8KE6Lv+WUEPBPha9HQe1mhD/eCox/mQgZstGo+8ej1f4xgX6W
0ZaId2nHvJUQZtpN5rn/cld3AHSPcRVrBiDrZnK4cUasyF5LwIhdqy5yENnpxtJa
tTU+gU5p3qWweX3+s6A35DkssF8l/NFEJOQOekYrxQGvE5gjm8okIcvixfLxFL0R
ctGBQq6+tVnBxsNGYcDzHvt96uer61KcM1tJMJ6wwH8CAwEAAaMyMDAwCQYDVR0T
BAIwADALBgNVHQ8EBAMCBeAwFgYDVR0RBA8wDYILKi5tYXRscy5jb20wDQYJKoZI
hvcNAQELBQADggEBAIh5B1k/6gGX/8EuArj5S4ovrq98b2w5S/oD8Ypq2KHRE9Ap
CyIAzHAOvB7rgR6r274EjNYPX5sn/jca2Ml/P21kBuGRBZ8Eu51MaQ2GsheYuFwE
kiSUSIIWin5UorEJPYM2bqr2TgS0GU5NSd0nSwIWgR9DqYgzPPdlBz+H1dzOGVta
aXY6YSfrbo/+AnABQX4t/Aj9HZT6Abspm3H2M+UWglEm1t8bEELHa5O2rLSwIdif
Nk+hg9AtQeACmByrYTGcU00WBDeVxwJpdJFesRKtikwuhOVHbcqWABkNkbdD5LI0
LX7qtMV5QkxJ+0Fd6+xAQ6T6tZUjh+qdC8Ag1FQ=
-----END CERTIFICATE-----
