Certificate:
    Data:
        Version: 3 (0x2)
        Serial Number:
            d0:97:12:07:db:30:11:01
    Signature Algorithm: sha256WithRSAEncryption
        Issuer: C=KR, ST=Seoul, L=Seoul, O=Carol CDN Ltd., OU=Carol CDN Ltd., CN=Carol CDN Ltd./emailAddress=ca@ca_carol.com
        Validity
            Not Before: Apr 30 10:58:11 2017 GMT
            Not After : Apr 30 10:58:11 2018 GMT
        Subject: C=KR, ST=Seoul, L=Seoul, O=Carol Ltd., OU=Dept. of CDN, CN=carol.com/emailAddress=edge@carol.com
        Subject Public Key Info:
            Public Key Algorithm: rsaEncryption
                Public-Key: (4096 bit)
                Modulus:
                    00:cb:ce:eb:ee:6f:14:75:f7:75:50:ae:2e:df:88:
                    75:d8:96:16:08:5c:95:e4:0f:30:0d:14:97:94:f1:
                    40:62:b6:bb:70:9d:4a:27:b5:56:b0:7e:78:39:44:
                    5c:6c:15:ca:3a:f0:77:b1:1e:10:4f:81:12:80:46:
                    9b:63:da:63:50:91:d2:e1:97:b4:6b:27:98:5d:d9:
                    98:b2:1f:24:b7:b1:8c:14:f7:a0:c2:4d:7d:f3:1f:
                    df:c1:68:8b:c6:a8:cf:2b:3a:60:67:81:7c:76:2f:
                    76:f6:5c:71:74:a6:4f:a5:81:b2:31:f1:ee:f6:22:
                    39:c4:2d:88:e4:2f:ea:31:20:6c:16:9e:92:68:d6:
                    f1:45:aa:d5:6b:f2:5c:7f:46:ab:64:f9:fe:5b:21:
                    3a:4a:c8:01:f8:a5:4b:f8:91:14:3b:f4:60:be:65:
                    fd:e5:06:b4:4a:f8:3a:3f:a9:48:82:e2:05:bf:f0:
                    e2:1f:9c:0e:dd:a7:c6:be:ba:75:8c:15:1e:79:a5:
                    2a:1f:cd:1b:47:72:b2:db:33:c7:b6:d4:94:07:81:
                    d0:5a:d4:de:36:e3:39:e3:0e:a7:7b:ba:64:a9:17:
                    1f:1f:1b:c8:f0:07:01:92:09:15:f5:ac:a0:7a:7a:
                    57:04:1e:80:75:e6:bd:d7:b3:e9:9f:42:51:19:1f:
                    f3:fe:4b:59:76:73:08:16:23:72:e2:31:f5:f6:5c:
                    5b:8f:ae:70:40:ad:69:86:93:ba:24:3b:81:78:0d:
                    7c:1e:37:7e:03:04:f2:ba:e2:51:da:16:7c:39:b5:
                    49:27:79:11:cb:89:69:80:ec:e9:67:25:d3:04:33:
                    c0:a8:8b:4a:08:fb:ce:05:bb:a7:41:bb:4e:d7:57:
                    6f:48:f0:70:f8:c0:11:df:05:f1:52:8a:60:bf:c5:
                    07:04:ac:16:87:db:b8:61:0a:ef:02:c6:8e:c1:bd:
                    50:e6:e8:90:05:e1:82:a9:5a:a6:60:e6:fc:6d:20:
                    3a:ff:3d:c1:f4:9c:fd:4b:a9:bc:71:05:00:b3:c1:
                    b9:a0:af:e6:71:05:c3:fa:bb:39:05:7d:5f:a8:a5:
                    7e:2e:df:82:37:03:42:3d:55:e8:43:a9:9d:44:50:
                    0f:f9:6b:c7:78:f1:0c:03:f2:91:ba:5d:0d:a7:38:
                    d7:a0:a8:d4:04:4b:a9:1f:b1:ed:c9:31:47:ef:aa:
                    73:f3:12:58:45:5b:80:f0:1b:4b:a5:1d:38:b6:d8:
                    ec:26:52:b3:4f:e2:5b:f6:99:a9:64:30:f0:88:2b:
                    0d:e6:20:12:f4:80:fc:d5:6f:29:3b:fd:00:a8:78:
                    98:e7:06:4e:69:e9:c5:74:99:f7:43:0c:da:70:b5:
                    44:96:6d
                Exponent: 65537 (0x10001)
        X509v3 extensions:
            X509v3 Basic Constraints: 
                CA:FALSE
            X509v3 Key Usage: 
                Digital Signature, Key Encipherment
            X509v3 Subject Alternative Name: 
                DNS:*.alice.com, DNS:*.carol.com
    Signature Algorithm: sha256WithRSAEncryption
         c3:91:99:36:8f:bb:62:19:6c:f6:e5:87:08:69:8a:75:bc:2e:
         9e:dc:1e:cd:4d:21:4f:a3:46:37:f3:51:16:9b:81:01:98:44:
         21:78:af:b9:1c:64:21:bc:d2:3e:ca:cc:42:3a:ad:90:b5:ce:
         15:05:21:0a:4a:a4:36:05:d1:ca:3a:68:c0:c6:16:00:fa:c9:
         52:25:4f:67:96:2a:ce:aa:56:d9:ae:bd:cb:5f:85:0e:65:49:
         6a:ba:ad:cf:52:cb:82:81:dc:45:77:e0:d7:03:3e:26:17:ca:
         16:28:d4:d4:18:b1:7a:e5:ea:14:6a:9d:69:63:f9:8a:90:e0:
         42:1c:89:f5:e2:89:b5:40:b4:a3:e2:29:b5:68:41:48:bc:5d:
         86:04:2e:a5:4a:99:9b:17:08:f5:8e:a5:88:cc:4b:8b:8b:0d:
         d7:71:9e:89:cd:67:76:eb:09:bb:68:ef:37:a1:a5:9d:3d:f9:
         4c:6a:1c:d2:4e:0e:8f:30:8d:d1:44:fe:fc:8f:9f:e3:33:8d:
         80:ae:14:6d:39:b6:6f:f6:35:bc:14:d6:64:68:f9:9b:ae:2b:
         88:1c:f6:47:bd:ba:3e:7a:ac:5b:0a:87:0c:f0:34:a4:b5:0a:
         4c:2c:1d:94:b7:cb:7c:f1:e8:11:7e:69:9e:57:84:12:c6:6a:
         60:2d:d1:74
-----BEGIN CERTIFICATE-----
MIIE6DCCA9CgAwIBAgIJANCXEgfbMBEBMA0GCSqGSIb3DQEBCwUAMIGYMQswCQYD
VQQGEwJLUjEOMAwGA1UECAwFU2VvdWwxDjAMBgNVBAcMBVNlb3VsMRcwFQYDVQQK
DA5DYXJvbCBDRE4gTHRkLjEXMBUGA1UECwwOQ2Fyb2wgQ0ROIEx0ZC4xFzAVBgNV
BAMMDkNhcm9sIENETiBMdGQuMR4wHAYJKoZIhvcNAQkBFg9jYUBjYV9jYXJvbC5j
b20wHhcNMTcwNDMwMTA1ODExWhcNMTgwNDMwMTA1ODExWjCBjDELMAkGA1UEBhMC
S1IxDjAMBgNVBAgMBVNlb3VsMQ4wDAYDVQQHDAVTZW91bDETMBEGA1UECgwKQ2Fy
b2wgTHRkLjEVMBMGA1UECwwMRGVwdC4gb2YgQ0ROMRIwEAYDVQQDDAljYXJvbC5j
b20xHTAbBgkqhkiG9w0BCQEWDmVkZ2VAY2Fyb2wuY29tMIICIjANBgkqhkiG9w0B
AQEFAAOCAg8AMIICCgKCAgEAy87r7m8Udfd1UK4u34h12JYWCFyV5A8wDRSXlPFA
Yra7cJ1KJ7VWsH54OURcbBXKOvB3sR4QT4ESgEabY9pjUJHS4Ze0ayeYXdmYsh8k
t7GMFPegwk198x/fwWiLxqjPKzpgZ4F8di929lxxdKZPpYGyMfHu9iI5xC2I5C/q
MSBsFp6SaNbxRarVa/Jcf0arZPn+WyE6SsgB+KVL+JEUO/RgvmX95Qa0Svg6P6lI
guIFv/DiH5wO3afGvrp1jBUeeaUqH80bR3Ky2zPHttSUB4HQWtTeNuM54w6ne7pk
qRcfHxvI8AcBkgkV9aygenpXBB6Adea917Ppn0JRGR/z/ktZdnMIFiNy4jH19lxb
j65wQK1phpO6JDuBeA18Hjd+AwTyuuJR2hZ8ObVJJ3kRy4lpgOzpZyXTBDPAqItK
CPvOBbunQbtO11dvSPBw+MAR3wXxUopgv8UHBKwWh9u4YQrvAsaOwb1Q5uiQBeGC
qVqmYOb8bSA6/z3B9Jz9S6m8cQUAs8G5oK/mcQXD+rs5BX1fqKV+Lt+CNwNCPVXo
Q6mdRFAP+WvHePEMA/KRul0NpzjXoKjUBEupH7HtyTFH76pz8xJYRVuA8BtLpR04
ttjsJlKzT+Jb9pmpZDDwiCsN5iAS9ID81W8pO/0AqHiY5wZOaenFdJn3QwzacLVE
lm0CAwEAAaM/MD0wCQYDVR0TBAIwADALBgNVHQ8EBAMCBaAwIwYDVR0RBBwwGoIL
Ki5hbGljZS5jb22CCyouY2Fyb2wuY29tMA0GCSqGSIb3DQEBCwUAA4IBAQDDkZk2
j7tiGWz25YcIaYp1vC6e3B7NTSFPo0Y381EWm4EBmEQheK+5HGQhvNI+ysxCOq2Q
tc4VBSEKSqQ2BdHKOmjAxhYA+slSJU9nlirOqlbZrr3LX4UOZUlquq3PUsuCgdxF
d+DXAz4mF8oWKNTUGLF65eoUap1pY/mKkOBCHIn14om1QLSj4im1aEFIvF2GBC6l
SpmbFwj1jqWIzEuLiw3XcZ6JzWd26wm7aO83oaWdPflMahzSTg6PMI3RRP78j5/j
M42ArhRtObZv9jW8FNZkaPmbriuIHPZHvbo+eqxbCocM8DSktQpMLB2Ut8t88egR
fmmeV4QSxmpgLdF0
-----END CERTIFICATE-----
