Certificate:
    Data:
        Version: 3 (0x2)
        Serial Number: 10266859949979128932 (0x8e7b36ba7530d464)
    Signature Algorithm: ecdsa-with-SHA256
        Issuer: C=KR, ST=Seoul, L=Seoul, O=mmlab, OU=mmlab, CN=mb
        Validity
            Not Before: May  4 11:31:39 2018 GMT
            Not After : May  4 11:31:39 2019 GMT
        Subject: C=KR, ST=Seoul, L=Seoul, O=Alice Ltd., OU=Alice Ltd., CN=matls.com/emailAddress=info@matls.com
        Subject Public Key Info:
            Public Key Algorithm: rsaEncryption
                Public-Key: (2048 bit)
                Modulus:
                    00:d0:8b:41:23:fd:32:78:f8:78:39:ce:06:92:f8:
                    ed:80:35:be:02:3e:56:4f:10:72:46:9e:53:f7:07:
                    bc:86:c8:dc:79:3d:25:96:da:28:dc:a0:78:1a:f2:
                    ec:95:6c:a6:73:c8:23:e4:14:9b:ff:6a:f4:a4:93:
                    ef:da:0a:2a:de:d4:16:3e:83:40:61:a6:22:3e:26:
                    ee:f8:95:85:25:bb:27:ac:2f:65:82:d2:59:39:52:
                    7b:f0:a3:dd:17:8a:32:06:88:1a:57:d0:83:f6:73:
                    8f:07:de:a0:15:6e:de:54:d6:68:cb:5b:4c:12:7d:
                    87:37:ee:44:6e:b8:84:b6:e8:83:64:22:62:ae:d2:
                    d9:a9:d9:05:a5:d2:1e:ff:19:3a:1e:51:8f:10:00:
                    44:46:56:21:c9:2e:52:61:3e:bf:6d:1e:3a:c5:9d:
                    14:43:f4:17:df:dd:7f:56:83:f0:f9:bc:d8:a6:19:
                    4b:41:8d:36:ed:69:1f:ea:e2:21:84:50:a0:4b:e0:
                    d4:a0:a8:34:1a:a9:d0:a8:3c:52:98:6c:6e:d5:ad:
                    b0:13:e3:3b:aa:5c:c4:21:9e:92:97:83:2c:32:29:
                    91:0c:1c:8d:10:dc:64:7a:1f:f6:78:99:86:34:ed:
                    4d:37:72:df:53:a3:6d:4d:cf:17:3c:7d:75:de:63:
                    81:05
                Exponent: 65537 (0x10001)
        X509v3 extensions:
            X509v3 Basic Constraints: 
                CA:FALSE
            X509v3 Key Usage: 
                Digital Signature, Non Repudiation, Key Encipherment
            X509v3 Subject Alternative Name: 
                DNS:*.matls.com
    Signature Algorithm: ecdsa-with-SHA256
         30:45:02:21:00:87:a0:aa:e1:1a:b1:77:ca:13:e4:ed:d7:c9:
         ac:bd:a3:77:c4:80:37:bf:45:4d:21:f0:74:39:44:a1:d8:a7:
         04:02:20:13:8f:fe:2a:85:11:92:86:fb:f6:83:9d:35:c7:1b:
         9d:22:aa:ad:77:08:a1:70:23:29:72:18:07:bb:be:aa:42
-----BEGIN CERTIFICATE-----
MIIC2TCCAn+gAwIBAgIJAI57Nrp1MNRkMAoGCCqGSM49BAMCMFoxCzAJBgNVBAYT
AktSMQ4wDAYDVQQIDAVTZW91bDEOMAwGA1UEBwwFU2VvdWwxDjAMBgNVBAoMBW1t
bGFiMQ4wDAYDVQQLDAVtbWxhYjELMAkGA1UEAwwCbWIwHhcNMTgwNTA0MTEzMTM5
WhcNMTkwNTA0MTEzMTM5WjCBijELMAkGA1UEBhMCS1IxDjAMBgNVBAgMBVNlb3Vs
MQ4wDAYDVQQHDAVTZW91bDETMBEGA1UECgwKQWxpY2UgTHRkLjETMBEGA1UECwwK
QWxpY2UgTHRkLjESMBAGA1UEAwwJbWF0bHMuY29tMR0wGwYJKoZIhvcNAQkBFg5p
bmZvQG1hdGxzLmNvbTCCASIwDQYJKoZIhvcNAQEBBQADggEPADCCAQoCggEBANCL
QSP9Mnj4eDnOBpL47YA1vgI+Vk8QckaeU/cHvIbI3Hk9JZbaKNygeBry7JVspnPI
I+QUm/9q9KST79oKKt7UFj6DQGGmIj4m7viVhSW7J6wvZYLSWTlSe/Cj3ReKMgaI
GlfQg/ZzjwfeoBVu3lTWaMtbTBJ9hzfuRG64hLbog2QiYq7S2anZBaXSHv8ZOh5R
jxAAREZWIckuUmE+v20eOsWdFEP0F9/df1aD8Pm82KYZS0GNNu1pH+riIYRQoEvg
1KCoNBqp0Kg8UphsbtWtsBPjO6pcxCGekpeDLDIpkQwcjRDcZHof9niZhjTtTTdy
31OjbU3PFzx9dd5jgQUCAwEAAaMyMDAwCQYDVR0TBAIwADALBgNVHQ8EBAMCBeAw
FgYDVR0RBA8wDYILKi5tYXRscy5jb20wCgYIKoZIzj0EAwIDSAAwRQIhAIegquEa
sXfKE+Tt18msvaN3xIA3v0VNIfB0OUSh2KcEAiATj/4qhRGShvv2g501xxudIqqt
dwihcCMpchgHu76qQg==
-----END CERTIFICATE-----
