Certificate:
    Data:
        Version: 3 (0x2)
        Serial Number: 10266859949979128931 (0x8e7b36ba7530d463)
    Signature Algorithm: ecdsa-with-SHA256
        Issuer: C=KR, ST=Seoul, L=Seoul, O=mmlab, OU=mmlab, CN=mb
        Validity
            Not Before: May  4 10:51:48 2018 GMT
            Not After : May  4 10:51:48 2019 GMT
        Subject: C=KR, ST=Seou, L=Seoul, O=mmlab, OU=mmlab, CN=matls
        Subject Public Key Info:
            Public Key Algorithm: rsaEncryption
                Public-Key: (2048 bit)
                Modulus:
                    00:d0:8b:41:23:fd:32:78:f8:78:39:ce:06:92:f8:
                    ed:80:35:be:02:3e:56:4f:10:72:46:9e:53:f7:07:
                    bc:86:c8:dc:79:3d:25:96:da:28:dc:a0:78:1a:f2:
                    ec:95:6c:a6:73:c8:23:e4:14:9b:ff:6a:f4:a4:93:
                    ef:da:0a:2a:de:d4:16:3e:83:40:61:a6:22:3e:26:
                    ee:f8:95:85:25:bb:27:ac:2f:65:82:d2:59:39:52:
                    7b:f0:a3:dd:17:8a:32:06:88:1a:57:d0:83:f6:73:
                    8f:07:de:a0:15:6e:de:54:d6:68:cb:5b:4c:12:7d:
                    87:37:ee:44:6e:b8:84:b6:e8:83:64:22:62:ae:d2:
                    d9:a9:d9:05:a5:d2:1e:ff:19:3a:1e:51:8f:10:00:
                    44:46:56:21:c9:2e:52:61:3e:bf:6d:1e:3a:c5:9d:
                    14:43:f4:17:df:dd:7f:56:83:f0:f9:bc:d8:a6:19:
                    4b:41:8d:36:ed:69:1f:ea:e2:21:84:50:a0:4b:e0:
                    d4:a0:a8:34:1a:a9:d0:a8:3c:52:98:6c:6e:d5:ad:
                    b0:13:e3:3b:aa:5c:c4:21:9e:92:97:83:2c:32:29:
                    91:0c:1c:8d:10:dc:64:7a:1f:f6:78:99:86:34:ed:
                    4d:37:72:df:53:a3:6d:4d:cf:17:3c:7d:75:de:63:
                    81:05
                Exponent: 65537 (0x10001)
        X509v3 extensions:
            X509v3 Basic Constraints: 
                CA:FALSE
            X509v3 Key Usage: 
                Digital Signature, Non Repudiation, Key Encipherment
            X509v3 Subject Alternative Name: 
                DNS:*.matls.com
    Signature Algorithm: ecdsa-with-SHA256
         30:45:02:20:61:40:b3:a3:2c:33:7b:bd:db:e3:ec:96:af:86:
         44:c2:91:63:80:2b:f6:5a:4b:d6:6f:ba:6f:f4:7f:14:78:1c:
         02:21:00:b4:6a:c8:e9:5c:ae:d7:7e:36:4b:9d:ae:0a:7f:5c:
         a5:9d:bb:f5:c0:8c:7c:c1:6d:4b:cc:e4:37:16:ee:6b:36
-----BEGIN CERTIFICATE-----
MIICqjCCAlCgAwIBAgIJAI57Nrp1MNRjMAoGCCqGSM49BAMCMFoxCzAJBgNVBAYT
AktSMQ4wDAYDVQQIDAVTZW91bDEOMAwGA1UEBwwFU2VvdWwxDjAMBgNVBAoMBW1t
bGFiMQ4wDAYDVQQLDAVtbWxhYjELMAkGA1UEAwwCbWIwHhcNMTgwNTA0MTA1MTQ4
WhcNMTkwNTA0MTA1MTQ4WjBcMQswCQYDVQQGEwJLUjENMAsGA1UECAwEU2VvdTEO
MAwGA1UEBwwFU2VvdWwxDjAMBgNVBAoMBW1tbGFiMQ4wDAYDVQQLDAVtbWxhYjEO
MAwGA1UEAwwFbWF0bHMwggEiMA0GCSqGSIb3DQEBAQUAA4IBDwAwggEKAoIBAQDQ
i0Ej/TJ4+Hg5zgaS+O2ANb4CPlZPEHJGnlP3B7yGyNx5PSWW2ijcoHga8uyVbKZz
yCPkFJv/avSkk+/aCire1BY+g0BhpiI+Ju74lYUluyesL2WC0lk5Unvwo90XijIG
iBpX0IP2c48H3qAVbt5U1mjLW0wSfYc37kRuuIS26INkImKu0tmp2QWl0h7/GToe
UY8QAERGViHJLlJhPr9tHjrFnRRD9Bff3X9Wg/D5vNimGUtBjTbtaR/q4iGEUKBL
4NSgqDQaqdCoPFKYbG7VrbAT4zuqXMQhnpKXgywyKZEMHI0Q3GR6H/Z4mYY07U03
ct9To21Nzxc8fXXeY4EFAgMBAAGjMjAwMAkGA1UdEwQCMAAwCwYDVR0PBAQDAgXg
MBYGA1UdEQQPMA2CCyoubWF0bHMuY29tMAoGCCqGSM49BAMCA0gAMEUCIGFAs6Ms
M3u92+Pslq+GRMKRY4Ar9lpL1m+6b/R/FHgcAiEAtGrI6Vyu1342S52uCn9cpZ27
9cCMfMFtS8zkNxbuazY=
-----END CERTIFICATE-----
