Certificate:
    Data:
        Version: 3 (0x2)
        Serial Number: 13718675658819402664 (0xbe6286d3b8ba7ba8)
    Signature Algorithm: ecdsa-with-SHA256
        Issuer: C=US, ST=California, L=California, O=Alice CA Ltd., OU=Alice CA Ltd., CN=Alice CA Ltd./emailAddress=ca@ca_alice.com
        Validity
            Not Before: May  4 11:51:03 2018 GMT
            Not After : May  4 11:51:03 2019 GMT
        Subject: C=US, ST=California, L=California, O=Alice Ltd., OU=Alice Ltd., CN=matls.com/emailAddress=info@matls.com
        Subject Public Key Info:
            Public Key Algorithm: rsaEncryption
                Public-Key: (2048 bit)
                Modulus:
                    00:d0:8b:41:23:fd:32:78:f8:78:39:ce:06:92:f8:
                    ed:80:35:be:02:3e:56:4f:10:72:46:9e:53:f7:07:
                    bc:86:c8:dc:79:3d:25:96:da:28:dc:a0:78:1a:f2:
                    ec:95:6c:a6:73:c8:23:e4:14:9b:ff:6a:f4:a4:93:
                    ef:da:0a:2a:de:d4:16:3e:83:40:61:a6:22:3e:26:
                    ee:f8:95:85:25:bb:27:ac:2f:65:82:d2:59:39:52:
                    7b:f0:a3:dd:17:8a:32:06:88:1a:57:d0:83:f6:73:
                    8f:07:de:a0:15:6e:de:54:d6:68:cb:5b:4c:12:7d:
                    87:37:ee:44:6e:b8:84:b6:e8:83:64:22:62:ae:d2:
                    d9:a9:d9:05:a5:d2:1e:ff:19:3a:1e:51:8f:10:00:
                    44:46:56:21:c9:2e:52:61:3e:bf:6d:1e:3a:c5:9d:
                    14:43:f4:17:df:dd:7f:56:83:f0:f9:bc:d8:a6:19:
                    4b:41:8d:36:ed:69:1f:ea:e2:21:84:50:a0:4b:e0:
                    d4:a0:a8:34:1a:a9:d0:a8:3c:52:98:6c:6e:d5:ad:
                    b0:13:e3:3b:aa:5c:c4:21:9e:92:97:83:2c:32:29:
                    91:0c:1c:8d:10:dc:64:7a:1f:f6:78:99:86:34:ed:
                    4d:37:72:df:53:a3:6d:4d:cf:17:3c:7d:75:de:63:
                    81:05
                Exponent: 65537 (0x10001)
        X509v3 extensions:
            X509v3 Basic Constraints: 
                CA:FALSE
            X509v3 Key Usage: 
                Digital Signature, Non Repudiation, Key Encipherment
            X509v3 Subject Alternative Name: 
                DNS:*.matls.com
    Signature Algorithm: ecdsa-with-SHA256
         30:45:02:21:00:93:73:ae:3a:fa:5c:a4:89:7f:93:88:ab:ea:
         fd:e1:c1:03:ba:30:e2:ad:6e:fa:37:6b:01:bf:04:eb:bd:fb:
         90:02:20:26:a8:7a:6e:dd:27:e0:e1:38:92:5e:39:04:a5:e2:
         00:7e:53:09:8b:46:a3:a3:1a:90:19:91:4e:0a:f1:ad:6c
-----BEGIN CERTIFICATE-----
MIIDKTCCAs+gAwIBAgIJAL5ihtO4unuoMAoGCCqGSM49BAMCMIGfMQswCQYDVQQG
EwJVUzETMBEGA1UECAwKQ2FsaWZvcm5pYTETMBEGA1UEBwwKQ2FsaWZvcm5pYTEW
MBQGA1UECgwNQWxpY2UgQ0EgTHRkLjEWMBQGA1UECwwNQWxpY2UgQ0EgTHRkLjEW
MBQGA1UEAwwNQWxpY2UgQ0EgTHRkLjEeMBwGCSqGSIb3DQEJARYPY2FAY2FfYWxp
Y2UuY29tMB4XDTE4MDUwNDExNTEwM1oXDTE5MDUwNDExNTEwM1owgZQxCzAJBgNV
BAYTAlVTMRMwEQYDVQQIDApDYWxpZm9ybmlhMRMwEQYDVQQHDApDYWxpZm9ybmlh
MRMwEQYDVQQKDApBbGljZSBMdGQuMRMwEQYDVQQLDApBbGljZSBMdGQuMRIwEAYD
VQQDDAltYXRscy5jb20xHTAbBgkqhkiG9w0BCQEWDmluZm9AbWF0bHMuY29tMIIB
IjANBgkqhkiG9w0BAQEFAAOCAQ8AMIIBCgKCAQEA0ItBI/0yePh4Oc4GkvjtgDW+
Aj5WTxByRp5T9we8hsjceT0lltoo3KB4GvLslWymc8gj5BSb/2r0pJPv2goq3tQW
PoNAYaYiPibu+JWFJbsnrC9lgtJZOVJ78KPdF4oyBogaV9CD9nOPB96gFW7eVNZo
y1tMEn2HN+5EbriEtuiDZCJirtLZqdkFpdIe/xk6HlGPEABERlYhyS5SYT6/bR46
xZ0UQ/QX391/VoPw+bzYphlLQY027Wkf6uIhhFCgS+DUoKg0GqnQqDxSmGxu1a2w
E+M7qlzEIZ6Sl4MsMimRDByNENxkeh/2eJmGNO1NN3LfU6NtTc8XPH113mOBBQID
AQABozIwMDAJBgNVHRMEAjAAMAsGA1UdDwQEAwIF4DAWBgNVHREEDzANggsqLm1h
dGxzLmNvbTAKBggqhkjOPQQDAgNIADBFAiEAk3OuOvpcpIl/k4ir6v3hwQO6MOKt
bvo3awG/BOu9+5ACICaoem7dJ+DhOJJeOQSl4gB+UwmLRqOjGpAZkU4K8a1s
-----END CERTIFICATE-----
