Certificate:
    Data:
        Version: 3 (0x2)
        Serial Number: 9376052230082986344 (0x821e6dd3a99b0168)
    Signature Algorithm: ecdsa-with-SHA256
        Issuer: C=KR, ST=Seoul, L=Seoul, O=Alice Inc., OU=Alice, CN=ca.alice.com/emailAddress=ca@alice.com
        Validity
            Not Before: Jul 29 11:00:24 2018 GMT
            Not After : Jul 29 11:00:24 2019 GMT
        Subject: C=KR, ST=Seoul, L=Seoul, O=Alice Inc., OU=Alice, CN=www.alice.com/emailAddress=alice@alice.com
        Subject Public Key Info:
            Public Key Algorithm: id-ecPublicKey
                Public-Key: (256 bit)
                pub: 
                    04:fd:98:b6:97:f4:b8:c7:00:ec:7b:43:63:29:dd:
                    cf:4b:4d:a0:df:8b:a0:ec:9f:3a:09:81:84:cb:89:
                    bd:fb:d9:0c:89:84:0e:3a:a9:3d:ba:54:c3:35:12:
                    e1:aa:82:5c:61:d2:cc:5e:6d:25:e2:0d:9a:c2:b2:
                    a1:18:63:be:de
                ASN1 OID: prime256v1
                NIST CURVE: P-256
        X509v3 extensions:
            X509v3 Basic Constraints: 
                CA:FALSE
            X509v3 Key Usage: 
                Digital Signature, Non Repudiation, Key Encipherment
            X509v3 Subject Key Identifier: 
                05:FE:D1:61:B8:50:FE:A2:67:8B:35:A9:D7:1C:8A:47:5B:A5:9B:F7
            X509v3 Authority Key Identifier: 
                keyid:FC:44:73:D1:0C:0B:88:20:63:F3:D6:94:07:F5:7F:E0:62:59:EF:2E

            Authority Information Access: 
                OCSP - URI:http://147.46.215.152:5678

            X509v3 Subject Alternative Name: 
                DNS:*.alice.com
    Signature Algorithm: ecdsa-with-SHA256
         30:45:02:20:3d:0f:b5:3e:5f:68:bc:05:bf:b7:17:d8:d2:7a:
         bb:a6:90:e5:90:af:62:d2:07:c5:b8:4d:21:ed:70:7c:34:7b:
         02:21:00:a2:61:0d:86:c5:fd:6b:3f:66:89:07:d2:0f:42:d5:
         fe:00:d5:bd:34:9b:5a:d5:ac:ac:c4:dc:be:79:d2:df:1e
-----BEGIN CERTIFICATE-----
MIICtTCCAlugAwIBAgIJAIIebdOpmwFoMAoGCCqGSM49BAMCMIGGMQswCQYDVQQG
EwJLUjEOMAwGA1UECAwFU2VvdWwxDjAMBgNVBAcMBVNlb3VsMRMwEQYDVQQKDApB
bGljZSBJbmMuMQ4wDAYDVQQLDAVBbGljZTEVMBMGA1UEAwwMY2EuYWxpY2UuY29t
MRswGQYJKoZIhvcNAQkBFgxjYUBhbGljZS5jb20wHhcNMTgwNzI5MTEwMDI0WhcN
MTkwNzI5MTEwMDI0WjCBijELMAkGA1UEBhMCS1IxDjAMBgNVBAgMBVNlb3VsMQ4w
DAYDVQQHDAVTZW91bDETMBEGA1UECgwKQWxpY2UgSW5jLjEOMAwGA1UECwwFQWxp
Y2UxFjAUBgNVBAMMDXd3dy5hbGljZS5jb20xHjAcBgkqhkiG9w0BCQEWD2FsaWNl
QGFsaWNlLmNvbTBZMBMGByqGSM49AgEGCCqGSM49AwEHA0IABP2Ytpf0uMcA7HtD
Yyndz0tNoN+LoOyfOgmBhMuJvfvZDImEDjqpPbpUwzUS4aqCXGHSzF5tJeINmsKy
oRhjvt6jgaswgagwCQYDVR0TBAIwADALBgNVHQ8EBAMCBeAwHQYDVR0OBBYEFAX+
0WG4UP6iZ4s1qdccikdbpZv3MB8GA1UdIwQYMBaAFPxEc9EMC4ggY/PWlAf1f+Bi
We8uMDYGCCsGAQUFBwEBBCowKDAmBggrBgEFBQcwAYYaaHR0cDovLzE0Ny40Ni4y
MTUuMTUyOjU2NzgwFgYDVR0RBA8wDYILKi5hbGljZS5jb20wCgYIKoZIzj0EAwID
SAAwRQIgPQ+1Pl9ovAW/txfY0nq7ppDlkK9i0gfFuE0h7XB8NHsCIQCiYQ2Gxf1r
P2aJB9IPQtX+ANW9NJta1aysxNy+edLfHg==
-----END CERTIFICATE-----
